

Microchip Technology PIC LITE Macro Assembler V1.44 build -154322312 
                                                                                               Tue Mar 10 21:35:44 2020

Microchip Technology Omniscient Code Generator v1.44 (Free mode) build 201709140600
     1                           	processor	16F877A
     2                           	opt	pw 120
     3                           	opt	lm
     4                           	psect	idataBANK0,global,class=CODE,delta=2
     5                           	psect	strings,global,class=STRING,delta=2
     6                           	psect	cinit,global,class=CODE,merge=1,delta=2
     7                           	psect	bssCOMMON,global,class=COMMON,space=1,delta=1
     8                           	psect	bssBANK0,global,class=BANK0,space=1,delta=1
     9                           	psect	dataBANK0,global,class=BANK0,space=1,delta=1
    10                           	psect	clrtext,global,class=CODE,delta=2
    11                           	psect	cstackCOMMON,global,class=COMMON,space=1,delta=1
    12                           	psect	cstackBANK0,global,class=BANK0,space=1,delta=1
    13                           	psect	maintext,global,class=CODE,split=1,delta=2
    14                           	psect	text1,local,class=CODE,merge=1,delta=2
    15                           	psect	text2,local,class=CODE,merge=1,delta=2
    16                           	psect	text3,local,class=CODE,merge=1,delta=2
    17                           	psect	text4,local,class=CODE,merge=1,delta=2
    18                           	psect	text5,local,class=CODE,merge=1,delta=2
    19                           	psect	text6,local,class=CODE,merge=1,delta=2
    20                           	psect	text7,local,class=CODE,merge=1,delta=2
    21                           	psect	text8,local,class=CODE,merge=1,delta=2
    22                           	psect	text9,local,class=CODE,merge=1,delta=2
    23                           	psect	text10,local,class=CODE,merge=1,delta=2,group=2
    24                           	psect	text11,local,class=CODE,merge=1,delta=2,group=2
    25                           	psect	text12,local,class=CODE,merge=1,delta=2
    26                           	psect	text13,local,class=CODE,merge=1,delta=2
    27                           	psect	text14,local,class=CODE,merge=1,delta=2
    28                           	psect	text15,local,class=CODE,merge=1,delta=2
    29                           	psect	text16,local,class=CODE,merge=1,delta=2
    30                           	psect	text17,local,class=CODE,merge=1,delta=2
    31                           	psect	text18,local,class=CODE,merge=1,delta=2
    32                           	psect	text19,local,class=CODE,merge=1,delta=2
    33                           	psect	text20,local,class=CODE,merge=1,delta=2
    34                           	psect	text21,local,class=CODE,merge=1,delta=2
    35                           	psect	text22,local,class=CODE,merge=1,delta=2
    36                           	psect	text23,local,class=CODE,merge=1,delta=2
    37                           	psect	text24,local,class=CODE,merge=1,delta=2
    38                           	psect	text25,local,class=CODE,merge=1,delta=2
    39                           	psect	text26,local,class=CODE,merge=1,delta=2
    40                           	psect	text27,local,class=CODE,merge=1,delta=2
    41                           	psect	text28,local,class=CODE,merge=1,delta=2
    42                           	psect	text29,local,class=CODE,merge=1,delta=2
    43                           	psect	intentry,global,class=CODE,delta=2
    44                           	psect	text30,local,class=CODE,merge=1,delta=2
    45                           	psect	text31,local,class=CODE,merge=1,delta=2
    46                           	dabs	1,0x7E,2
    47  0000                     
    48                           ; Version 1.44
    49                           ; Generated 14/09/2017 GMT
    50                           ; 
    51                           ; Copyright Â© 2017, Microchip Technology Inc. and its subsidiaries ("Microchip")
    52                           ; All rights reserved.
    53                           ; 
    54                           ; This software is developed by Microchip Technology Inc. and its subsidiaries ("Microch
      +                          ip").
    55                           ; 
    56                           ; Redistribution and use in source and binary forms, with or without modification, are
    57                           ; permitted provided that the following conditions are met:
    58                           ; 
    59                           ;     1. Redistributions of source code must retain the above copyright notice, this lis
      +                          t of
    60                           ;        conditions and the following disclaimer.
    61                           ; 
    62                           ;     2. Redistributions in binary form must reproduce the above copyright notice, this 
      +                          list
    63                           ;        of conditions and the following disclaimer in the documentation and/or other
    64                           ;        materials provided with the distribution.
    65                           ; 
    66                           ;     3. Microchip's name may not be used to endorse or promote products derived from th
      +                          is
    67                           ;        software without specific prior written permission.
    68                           ; 
    69                           ; THIS SOFTWARE IS PROVIDED BY MICROCHIP "AS IS" AND ANY EXPRESS OR IMPLIED WARRANTIES,
    70                           ; INCLUDING, BUT NOT LIMITED TO, THE IMPLIED WARRANTIES OF MERCHANTABILITY AND FITNESS F
      +                          OR
    71                           ; PURPOSE ARE DISCLAIMED.  IN NO EVENT SHALL MICROCHIP BE LIABLE FOR ANY DIRECT, INDIREC
      +                          T,
    72                           ; INCIDENTAL, SPECIAL, EXEMPLARY, OR CONSEQUENTIAL DAMAGES (INCLUDING BUT NOT LIMITED TO
    73                           ; PROCUREMENT OF SUBSTITUTE GOODS OR SERVICES; LOSS OF USE, DATA OR PROFITS; OR BUSINESS
    74                           ; INTERRUPTION) HOWSOEVER CAUSED AND ON ANY THEORY OF LIABILITY, WHETHER IN CONTRACT, ST
      +                          RICT
    75                           ; LIABILITY, OR TORT (INCLUDING NEGLIGENCE OR OTHERWISE) ARISING IN ANY WAY OUT OF THE U
      +                          SE OF
    76                           ; THIS SOFTWARE, EVEN IF ADVISED OF THE POSSIBILITY OF SUCH DAMAGE.
    77                           ; 
    78                           ; 
    79                           ; Code-generator required, PIC16F877A Definitions
    80                           ; 
    81                           ; SFR Addresses
    82  0000                     	;# 
    83  0001                     	;# 
    84  0002                     	;# 
    85  0003                     	;# 
    86  0004                     	;# 
    87  0005                     	;# 
    88  0006                     	;# 
    89  0007                     	;# 
    90  0008                     	;# 
    91  0009                     	;# 
    92  000A                     	;# 
    93  000B                     	;# 
    94  000C                     	;# 
    95  000D                     	;# 
    96  000E                     	;# 
    97  000E                     	;# 
    98  000F                     	;# 
    99  0010                     	;# 
   100  0011                     	;# 
   101  0012                     	;# 
   102  0013                     	;# 
   103  0014                     	;# 
   104  0015                     	;# 
   105  0015                     	;# 
   106  0016                     	;# 
   107  0017                     	;# 
   108  0018                     	;# 
   109  0019                     	;# 
   110  001A                     	;# 
   111  001B                     	;# 
   112  001B                     	;# 
   113  001C                     	;# 
   114  001D                     	;# 
   115  001E                     	;# 
   116  001F                     	;# 
   117  0081                     	;# 
   118  0085                     	;# 
   119  0086                     	;# 
   120  0087                     	;# 
   121  0088                     	;# 
   122  0089                     	;# 
   123  008C                     	;# 
   124  008D                     	;# 
   125  008E                     	;# 
   126  0091                     	;# 
   127  0092                     	;# 
   128  0093                     	;# 
   129  0094                     	;# 
   130  0098                     	;# 
   131  0099                     	;# 
   132  009C                     	;# 
   133  009D                     	;# 
   134  009E                     	;# 
   135  009F                     	;# 
   136  010C                     	;# 
   137  010D                     	;# 
   138  010E                     	;# 
   139  010F                     	;# 
   140  018C                     	;# 
   141  018D                     	;# 
   142                           
   143                           	psect	idataBANK0
   144  03FB                     __pidataBANK0:	
   145                           
   146                           ;initializer for _escolhaMenu
   147  03FB  3402               	retlw	2
   148  03FC  3400               	retlw	0
   149                           
   150                           ;initializer for _limiteHorario
   151  03FD  3418               	retlw	24
   152  03FE  3400               	retlw	0
   153  0009                     _PORTE	set	9
   154  0007                     _PORTC	set	7
   155  0006                     _PORTB	set	6
   156  000B                     _INTCONbits	set	11
   157  0001                     _TMR0	set	1
   158  0006                     _PORTBbits	set	6
   159  0008                     _PORTD	set	8
   160  0009                     _PORTEbits	set	9
   161  0081                     _OPTION_REGbits	set	129
   162  0089                     _TRISE	set	137
   163  0088                     _TRISD	set	136
   164  0087                     _TRISC	set	135
   165  0086                     _TRISB	set	134
   166  009F                     _ADCON1bits	set	159
   167                           
   168                           	psect	strings
   169  0400                     __pstrings:	
   170  0400                     stringtab:	
   171  0400                     __stringtab:	
   172                           
   173                           ;	String table - string pointers are 1 byte each
   174  0400  1BFF               	btfsc	btemp+1,7
   175  0401  2C0A               	ljmp	stringcode
   176  0402  1383               	bcf	3,7
   177  0403  187F               	btfsc	btemp+1,0
   178  0404  1783               	bsf	3,7
   179  0405  0800               	movf	0,w
   180  0406  0A84               	incf	4,f
   181  0407  1903               	skipnz
   182  0408  0AFF               	incf	btemp+1,f
   183  0409  0008               	return
   184  040A                     stringcode:	
   185  040A                     stringdir:	
   186  040A  3004               	movlw	high stringdir
   187  040B  008A               	movwf	10
   188  040C  0804               	movf	4,w
   189  040D  0A84               	incf	4,f
   190  040E  0782               	addwf	2,f
   191  040F                     __stringbase:	
   192  040F  3400               	retlw	0
   193  0410                     __end_of__stringtab:	
   194  0410                     STR_9:	
   195  0410  3420               	retlw	32	;' '
   196  0411  3420               	retlw	32	;' '
   197  0412  3420               	retlw	32	;' '
   198  0413  3420               	retlw	32	;' '
   199  0414  3420               	retlw	32	;' '
   200  0415  3420               	retlw	32	;' '
   201  0416  3420               	retlw	32	;' '
   202  0417  3420               	retlw	32	;' '
   203  0418  3420               	retlw	32	;' '
   204  0419  3420               	retlw	32	;' '
   205  041A  3420               	retlw	32	;' '
   206  041B  3420               	retlw	32	;' '
   207  041C  3420               	retlw	32	;' '
   208  041D  3420               	retlw	32	;' '
   209  041E  3420               	retlw	32	;' '
   210  041F  3420               	retlw	32	;' '
   211  0420  3400               	retlw	0
   212  0421                     STR_2:	
   213  0421  3432               	retlw	50	;'2'
   214  0422  3434               	retlw	52	;'4'
   215  0423  3420               	retlw	32	;' '
   216  0424  3420               	retlw	32	;' '
   217  0425  3420               	retlw	32	;' '
   218  0426  3420               	retlw	32	;' '
   219  0427  3420               	retlw	32	;' '
   220  0428  3420               	retlw	32	;' '
   221  0429  3420               	retlw	32	;' '
   222  042A  3420               	retlw	32	;' '
   223  042B  3420               	retlw	32	;' '
   224  042C  3420               	retlw	32	;' '
   225  042D  3420               	retlw	32	;' '
   226  042E  3420               	retlw	32	;' '
   227  042F  3420               	retlw	32	;' '
   228  0430  3420               	retlw	32	;' '
   229  0431  3400               	retlw	0
   230  0432                     STR_1:	
   231  0432  3420               	retlw	32	;' '
   232  0433  3420               	retlw	32	;' '
   233  0434  3420               	retlw	32	;' '
   234  0435  3420               	retlw	32	;' '
   235  0436  3420               	retlw	32	;' '
   236  0437  3431               	retlw	49	;'1'
   237  0438  3432               	retlw	50	;'2'
   238  0439  3420               	retlw	32	;' '
   239  043A  3420               	retlw	32	;' '
   240  043B  3420               	retlw	32	;' '
   241  043C  3420               	retlw	32	;' '
   242  043D  3420               	retlw	32	;' '
   243  043E  3420               	retlw	32	;' '
   244  043F  3420               	retlw	32	;' '
   245  0440  3420               	retlw	32	;' '
   246  0441  3420               	retlw	32	;' '
   247  0442  3400               	retlw	0
   248  0443                     STR_3:	
   249  0443  3432               	retlw	50	;'2'
   250  0444  3434               	retlw	52	;'4'
   251  0445  3420               	retlw	32	;' '
   252  0446  3420               	retlw	32	;' '
   253  0447  3420               	retlw	32	;' '
   254  0448  3431               	retlw	49	;'1'
   255  0449  3432               	retlw	50	;'2'
   256  044A  3420               	retlw	32	;' '
   257  044B  3420               	retlw	32	;' '
   258  044C  3420               	retlw	32	;' '
   259  044D  3420               	retlw	32	;' '
   260  044E  3420               	retlw	32	;' '
   261  044F  3420               	retlw	32	;' '
   262  0450  3420               	retlw	32	;' '
   263  0451  3420               	retlw	32	;' '
   264  0452  3420               	retlw	32	;' '
   265  0453  3400               	retlw	0
   266  0454                     STR_6:	
   267  0454  3448               	retlw	72	;'H'
   268  0455  346F               	retlw	111	;'o'
   269  0456  3472               	retlw	114	;'r'
   270  0457  3461               	retlw	97	;'a'
   271  0458  3472               	retlw	114	;'r'
   272  0459  3469               	retlw	105	;'i'
   273  045A  346F               	retlw	111	;'o'
   274  045B  3420               	retlw	32	;' '
   275  045C  3420               	retlw	32	;' '
   276  045D  3420               	retlw	32	;' '
   277  045E  3420               	retlw	32	;' '
   278  045F  3420               	retlw	32	;' '
   279  0460  3420               	retlw	32	;' '
   280  0461  3420               	retlw	32	;' '
   281  0462  3420               	retlw	32	;' '
   282  0463  3420               	retlw	32	;' '
   283  0464  3400               	retlw	0
   284  0465                     STR_5:	
   285  0465  344D               	retlw	77	;'M'
   286  0466  346F               	retlw	111	;'o'
   287  0467  3464               	retlw	100	;'d'
   288  0468  346F               	retlw	111	;'o'
   289  0469  3420               	retlw	32	;' '
   290  046A  3445               	retlw	69	;'E'
   291  046B  3478               	retlw	120	;'x'
   292  046C  3469               	retlw	105	;'i'
   293  046D  3462               	retlw	98	;'b'
   294  046E  3469               	retlw	105	;'i'
   295  046F  3463               	retlw	99	;'c'
   296  0470  3461               	retlw	97	;'a'
   297  0471  346F               	retlw	111	;'o'
   298  0472  3420               	retlw	32	;' '
   299  0473  3420               	retlw	32	;' '
   300  0474  3420               	retlw	32	;' '
   301  0475  3400               	retlw	0
   302  0476                     STR_4:	
   303  0476  3420               	retlw	32	;' '
   304  0477  3420               	retlw	32	;' '
   305  0478  3420               	retlw	32	;' '
   306  0479  3420               	retlw	32	;' '
   307  047A  3420               	retlw	32	;' '
   308  047B  3420               	retlw	32	;' '
   309  047C  3420               	retlw	32	;' '
   310  047D  3420               	retlw	32	;' '
   311  047E  3420               	retlw	32	;' '
   312  047F  3441               	retlw	65	;'A'
   313  0480  346C               	retlw	108	;'l'
   314  0481  3461               	retlw	97	;'a'
   315  0482  3472               	retlw	114	;'r'
   316  0483  346D               	retlw	109	;'m'
   317  0484  3465               	retlw	101	;'e'
   318  0485  3420               	retlw	32	;' '
   319  0486  3400               	retlw	0
   320  0487                     STR_8:	
   321  0487  3448               	retlw	72	;'H'
   322  0488  346F               	retlw	111	;'o'
   323  0489  3472               	retlw	114	;'r'
   324  048A  3461               	retlw	97	;'a'
   325  048B  3472               	retlw	114	;'r'
   326  048C  3469               	retlw	105	;'i'
   327  048D  346F               	retlw	111	;'o'
   328  048E  3420               	retlw	32	;' '
   329  048F  3420               	retlw	32	;' '
   330  0490  3441               	retlw	65	;'A'
   331  0491  346C               	retlw	108	;'l'
   332  0492  3461               	retlw	97	;'a'
   333  0493  3472               	retlw	114	;'r'
   334  0494  346D               	retlw	109	;'m'
   335  0495  3465               	retlw	101	;'e'
   336  0496  3420               	retlw	32	;' '
   337  0497  3400               	retlw	0
   338  0465                     
   339                           ; #config settings
   340  0000                     
   341                           	psect	cinit
   342  0015                     start_initialization:	
   343  0015                     __initialization:	
   344                           
   345                           ; Initialize objects allocated to BANK0
   346  0015  120A  118A  23FB  120A  118A  	fcall	__pidataBANK0	;fetch initializer
   347  001A  00D5               	movwf	__pdataBANK0& (0+127)
   348  001B  120A  118A  23FC  120A  118A  	fcall	__pidataBANK0+1	;fetch initializer
   349  0020  00D6               	movwf	(__pdataBANK0+1)& (0+127)
   350  0021  120A  118A  23FD  120A  118A  	fcall	__pidataBANK0+2	;fetch initializer
   351  0026  00D7               	movwf	(__pdataBANK0+2)& (0+127)
   352  0027  120A  118A  23FE  120A  118A  	fcall	__pidataBANK0+3	;fetch initializer
   353  002C  00D8               	movwf	(__pdataBANK0+3)& (0+127)
   354                           
   355                           ; Clear objects allocated to BANK0
   356  002D  1383               	bcf	3,7	;select IRP bank0
   357  002E  3020               	movlw	low __pbssBANK0
   358  002F  0084               	movwf	4
   359  0030  3047               	movlw	low (__pbssBANK0+39)
   360  0031  120A  158A  2630   	fcall	clear_ram0
   361                           
   362                           ; Clear objects allocated to COMMON
   363  0034  01F5               	clrf	__pbssCOMMON& (0+127)
   364  0035  01F6               	clrf	(__pbssCOMMON+1)& (0+127)
   365  0036  01F7               	clrf	(__pbssCOMMON+2)& (0+127)
   366  0037  01F8               	clrf	(__pbssCOMMON+3)& (0+127)
   367  0038                     end_of_initialization:	
   368                           ;End of C runtime variable initialization code
   369                           
   370  0038                     __end_of__initialization:	
   371  0038  0183               	clrf	3
   372  0039  120A  118A  29FE   	ljmp	_main	;jump to C main() function
   373                           
   374                           	psect	bssCOMMON
   375  0075                     __pbssCOMMON:	
   376  0075                     _escolhaModo:	
   377  0075                     	ds	2
   378  0077                     _flagEditandoUmLado:	
   379  0077                     	ds	2
   380                           
   381                           	psect	bssBANK0
   382  0020                     __pbssBANK0:	
   383  0020                     _escolhaSubMenu:	
   384  0020                     	ds	2
   385  0022                     _flagPm:	
   386  0022                     	ds	2
   387  0024                     _flagLimparTela:	
   388  0024                     	ds	2
   389  0026                     _flagEstadoPiscando:	
   390  0026                     	ds	2
   391  0028                     _flagLadoParaEditar:	
   392  0028                     	ds	2
   393  002A                     _flagB1:	
   394  002A                     	ds	2
   395  002C                     _flagB0:	
   396  002C                     	ds	2
   397  002E                     _tempoSegurandoSegundoBotaoMili:	
   398  002E                     	ds	2
   399  0030                     _tempoSegurandoPrimeiroBotaoMili:	
   400  0030                     	ds	2
   401  0032                     _horasAlarme:	
   402  0032                     	ds	2
   403  0034                     _minutosAlarme:	
   404  0034                     	ds	2
   405  0036                     _milissegundos:	
   406  0036                     	ds	2
   407  0038                     _horas:	
   408  0038                     	ds	2
   409  003A                     _minutos:	
   410  003A                     	ds	2
   411  003C                     _segundos:	
   412  003C                     	ds	2
   413  003E                     _textoNaTela:	
   414  003E                     	ds	9
   415                           
   416                           	psect	dataBANK0
   417  0055                     __pdataBANK0:	
   418  0055                     _escolhaMenu:	
   419  0055                     	ds	2
   420  0057                     _limiteHorario:	
   421  0057                     	ds	2
   422                           
   423                           	psect	clrtext
   424  0E30                     clear_ram0:	
   425                           ;	Called with FSR containing the base address, and
   426                           ;	W with the last address+1
   427                           
   428  0E30  0064               	clrwdt	;clear the watchdog before getting into this loop
   429  0E31                     clrloop0:	
   430  0E31  0180               	clrf	0	;clear RAM location pointed to by FSR
   431  0E32  0A84               	incf	4,f	;increment pointer
   432  0E33  0604               	xorwf	4,w	;XOR with final address
   433  0E34  1903               	btfsc	3,2	;have we reached the end yet?
   434  0E35  3400               	retlw	0	;all done for this memory range, return
   435  0E36  0604               	xorwf	4,w	;XOR again to restore value
   436  0E37  2E31               	goto	clrloop0	;do the next byte
   437                           
   438                           	psect	cstackCOMMON
   439  0070                     __pcstackCOMMON:	
   440  0070                     ?_LCD_WriteCmd:	
   441  0070                     ?_LCD_WriteData:	
   442                           ; 1 bytes @ 0x0
   443                           
   444  0070                     ?_LCD_Clear:	
   445                           ; 1 bytes @ 0x0
   446                           
   447  0070                     ?_LCD_Init:	
   448                           ; 1 bytes @ 0x0
   449                           
   450  0070                     ?_adicionaTempoSegurandoPrimeiroBotao:	
   451                           ; 1 bytes @ 0x0
   452                           
   453  0070                     ??_adicionaTempoSegurandoPrimeiroBotao:	
   454                           ; 1 bytes @ 0x0
   455                           
   456  0070                     ?_adicionaTempoSegurandoSegundoBotao:	
   457                           ; 1 bytes @ 0x0
   458                           
   459  0070                     ??_adicionaTempoSegurandoSegundoBotao:	
   460                           ; 1 bytes @ 0x0
   461                           
   462  0070                     ?_ISR:	
   463                           ; 1 bytes @ 0x0
   464                           
   465  0070                     ??_ISR:	
   466                           ; 1 bytes @ 0x0
   467                           
   468  0070                     ?_aumentarValorDoLadoEscolhido:	
   469                           ; 1 bytes @ 0x0
   470                           
   471  0070                     ?_diminuirValorDoLadoEscolhido:	
   472                           ; 1 bytes @ 0x0
   473                           
   474  0070                     ?_aumentarValorDoLadoEscolhidoAlarme:	
   475                           ; 1 bytes @ 0x0
   476                           
   477  0070                     ?_diminuirValorDoLadoEscolhidoAlarme:	
   478                           ; 1 bytes @ 0x0
   479                           
   480  0070                     ?_trocaDeLadoEdicao:	
   481                           ; 1 bytes @ 0x0
   482                           
   483  0070                     ?_aumentarOpcaoMenu:	
   484                           ; 1 bytes @ 0x0
   485                           
   486  0070                     ?_diminuirOpcaoMenu:	
   487                           ; 1 bytes @ 0x0
   488                           
   489  0070                     ?_trocarSubMenuEscolhido:	
   490                           ; 1 bytes @ 0x0
   491                           
   492  0070                     ?_trocaExibicaoHorario:	
   493                           ; 1 bytes @ 0x0
   494                           
   495  0070                     ?_executaAcaoPrimeiroBotao:	
   496                           ; 1 bytes @ 0x0
   497                           
   498  0070                     ?_executaAcaoSegundoBotao:	
   499                           ; 1 bytes @ 0x0
   500                           
   501  0070                     ?_deveExibirHoras:	
   502                           ; 1 bytes @ 0x0
   503                           
   504  0070                     ?_deveExibirMinutos:	
   505                           ; 1 bytes @ 0x0
   506                           
   507  0070                     ?_deveExibirSegundos:	
   508                           ; 1 bytes @ 0x0
   509                           
   510  0070                     ?_exibeHorarioPiscando:	
   511                           ; 1 bytes @ 0x0
   512                           
   513  0070                     ?_exibeHorarioPiscandoAlarme:	
   514                           ; 1 bytes @ 0x0
   515                           
   516  0070                     ?_opcoesDeExibicaoHorario:	
   517                           ; 1 bytes @ 0x0
   518                           
   519  0070                     ?_mostraMenuOpcoes:	
   520                           ; 1 bytes @ 0x0
   521                           
   522  0070                     ?_exibeHorarioNormalmente:	
   523                           ; 1 bytes @ 0x0
   524                           
   525  0070                     ?_exibeTela:	
   526                           ; 1 bytes @ 0x0
   527                           
   528  0070                     ?_main:	
   529                           ; 1 bytes @ 0x0
   530                           
   531                           
   532                           ; 1 bytes @ 0x0
   533  0070                     	ds	5
   534  0075                     ??_LCD_WriteString:	
   535  0075                     ??_diminuirValorDoLadoEscolhido:	
   536                           ; 1 bytes @ 0x5
   537                           
   538  0075                     ??_diminuirValorDoLadoEscolhidoAlarme:	
   539                           ; 1 bytes @ 0x5
   540                           
   541  0075                     ??_trocaDeLadoEdicao:	
   542                           ; 1 bytes @ 0x5
   543                           
   544  0075                     ??_aumentarOpcaoMenu:	
   545                           ; 1 bytes @ 0x5
   546                           
   547  0075                     ??_diminuirOpcaoMenu:	
   548                           ; 1 bytes @ 0x5
   549                           
   550  0075                     ??_trocarSubMenuEscolhido:	
   551                           ; 1 bytes @ 0x5
   552                           
   553  0075                     ??_trocaExibicaoHorario:	
   554                           ; 1 bytes @ 0x5
   555                           
   556  0075                     ??_executaAcaoPrimeiroBotao:	
   557                           ; 1 bytes @ 0x5
   558                           
   559  0075                     ??_executaAcaoSegundoBotao:	
   560                           ; 1 bytes @ 0x5
   561                           
   562  0075                     ??_opcoesDeExibicaoHorario:	
   563                           ; 1 bytes @ 0x5
   564                           
   565  0075                     ??_mostraMenuOpcoes:	
   566                           ; 1 bytes @ 0x5
   567                           
   568  0075                     ??_exibeTela:	
   569                           ; 1 bytes @ 0x5
   570                           
   571                           
   572                           	psect	cstackBANK0
   573  0047                     __pcstackBANK0:	
   574                           ; 1 bytes @ 0x5
   575                           
   576  0047                     ?_LCD_Cursor:	
   577  0047                     ??_LCD_WriteCmd:	
   578                           ; 1 bytes @ 0x0
   579                           
   580  0047                     ??_LCD_WriteData:	
   581                           ; 1 bytes @ 0x0
   582                           
   583  0047                     ??_aumentarValorDoLadoEscolhido:	
   584                           ; 1 bytes @ 0x0
   585                           
   586  0047                     ??_aumentarValorDoLadoEscolhidoAlarme:	
   587                           ; 1 bytes @ 0x0
   588                           
   589  0047                     ?___awdiv:	
   590                           ; 1 bytes @ 0x0
   591                           
   592  0047                     ?___awmod:	
   593                           ; 2 bytes @ 0x0
   594                           
   595  0047                     LCD_Cursor@Col:	
   596                           ; 2 bytes @ 0x0
   597                           
   598  0047                     executaAcaoSegundoBotao@tempoSegurando:	
   599                           ; 1 bytes @ 0x0
   600                           
   601  0047                     ___awdiv@divisor:	
   602                           ; 2 bytes @ 0x0
   603                           
   604  0047                     ___awmod@divisor:	
   605                           ; 2 bytes @ 0x0
   606                           
   607                           
   608                           ; 2 bytes @ 0x0
   609  0047                     	ds	1
   610  0048                     ??_LCD_Cursor:	
   611  0048                     LCD_WriteCmd@Byte:	
   612                           ; 1 bytes @ 0x1
   613                           
   614  0048                     LCD_WriteData@Byte:	
   615                           ; 1 bytes @ 0x1
   616                           
   617  0048                     executaAcaoPrimeiroBotao@tempoSegurando:	
   618                           ; 1 bytes @ 0x1
   619                           
   620                           
   621                           ; 2 bytes @ 0x1
   622  0048                     	ds	1
   623  0049                     ?_LCD_WriteString:	
   624  0049                     ??_LCD_Clear:	
   625                           ; 1 bytes @ 0x2
   626                           
   627  0049                     ??_LCD_Init:	
   628                           ; 1 bytes @ 0x2
   629                           
   630  0049                     LCD_Cursor@Row:	
   631                           ; 1 bytes @ 0x2
   632                           
   633  0049                     LCD_WriteString@Str:	
   634                           ; 1 bytes @ 0x2
   635                           
   636  0049                     ___awdiv@dividend:	
   637                           ; 2 bytes @ 0x2
   638                           
   639  0049                     ___awmod@dividend:	
   640                           ; 2 bytes @ 0x2
   641                           
   642                           
   643                           ; 2 bytes @ 0x2
   644  0049                     	ds	2
   645  004B                     ??___awdiv:	
   646  004B                     ??___awmod:	
   647                           ; 1 bytes @ 0x4
   648                           
   649                           
   650                           ; 1 bytes @ 0x4
   651  004B                     	ds	1
   652  004C                     ___awdiv@counter:	
   653  004C                     ___awmod@counter:	
   654                           ; 1 bytes @ 0x5
   655                           
   656                           
   657                           ; 1 bytes @ 0x5
   658  004C                     	ds	1
   659  004D                     ___awdiv@sign:	
   660  004D                     ___awmod@sign:	
   661                           ; 1 bytes @ 0x6
   662                           
   663                           
   664                           ; 1 bytes @ 0x6
   665  004D                     	ds	1
   666  004E                     ___awdiv@quotient:	
   667                           
   668                           ; 2 bytes @ 0x7
   669  004E                     	ds	2
   670  0050                     ??_deveExibirHoras:	
   671  0050                     ??_deveExibirMinutos:	
   672                           ; 1 bytes @ 0x9
   673                           
   674  0050                     ??_deveExibirSegundos:	
   675                           ; 1 bytes @ 0x9
   676                           
   677  0050                     ??_exibeHorarioNormalmente:	
   678                           ; 1 bytes @ 0x9
   679                           
   680                           
   681                           ; 1 bytes @ 0x9
   682  0050                     	ds	1
   683  0051                     deveExibirHoras@horasSendoExibidas:	
   684  0051                     deveExibirMinutos@minutosSendoExibidos:	
   685                           ; 2 bytes @ 0xA
   686                           
   687                           
   688                           ; 2 bytes @ 0xA
   689  0051                     	ds	2
   690  0053                     ??_exibeHorarioPiscando:	
   691  0053                     ??_exibeHorarioPiscandoAlarme:	
   692                           ; 1 bytes @ 0xC
   693                           
   694                           
   695                           ; 1 bytes @ 0xC
   696  0053                     	ds	1
   697  0054                     ??_main:	
   698                           
   699                           ; 1 bytes @ 0xD
   700  0054                     	ds	1
   701                           
   702                           	psect	maintext
   703  01FE                     __pmaintext:	
   704 ;;
   705 ;;Main: autosize = 0, tempsize = 1, incstack = 0, save=0
   706 ;;
   707 ;; *************** function _main *****************
   708 ;; Defined at:
   709 ;;		line 642 in file "E:\Google Drive\Sistemas Embarcados\Projeto Relógio\Código MPLAB\Projeto_Relogio\Relogio_digital_t
      +imer0.c"
   710 ;; Parameters:    Size  Location     Type
   711 ;;		None
   712 ;; Auto vars:     Size  Location     Type
   713 ;;		None
   714 ;; Return value:  Size  Location     Type
   715 ;;                  1    wreg      void 
   716 ;; Registers used:
   717 ;;		wreg, fsr0l, fsr0h, status,2, status,0, btemp+1, pclath, cstack
   718 ;; Tracked objects:
   719 ;;		On entry : B00/0
   720 ;;		On exit  : 0/0
   721 ;;		Unchanged: 0/0
   722 ;; Data sizes:     COMMON   BANK0   BANK1   BANK3   BANK2
   723 ;;      Params:         0       0       0       0       0
   724 ;;      Locals:         0       0       0       0       0
   725 ;;      Temps:          0       1       0       0       0
   726 ;;      Totals:         0       1       0       0       0
   727 ;;Total ram usage:        1 bytes
   728 ;; Hardware stack levels required when called:    6
   729 ;; This function calls:
   730 ;;		_LCD_Clear
   731 ;;		_LCD_Cursor
   732 ;;		_LCD_Init
   733 ;;		_executaAcaoPrimeiroBotao
   734 ;;		_executaAcaoSegundoBotao
   735 ;;		_exibeTela
   736 ;; This function is called by:
   737 ;;		Startup code after reset
   738 ;; This function uses a non-reentrant model
   739 ;;
   740                           
   741                           
   742                           ;psect for function _main
   743  01FE                     _main:	
   744                           
   745                           ;Relogio_digital_timer0.c: 644: TRISB = 0b00000011;
   746                           
   747                           ;incstack = 0
   748                           ; Regs used in _main: [wreg-fsr0h+status,2+status,0+btemp+1+pclath+cstack]
   749  01FE  3003               	movlw	3
   750  01FF  1683               	bsf	3,5	;RP0=1, select bank1
   751  0200  1303               	bcf	3,6	;RP1=0, select bank1
   752  0201  0086               	movwf	6	;volatile
   753                           
   754                           ;Relogio_digital_timer0.c: 645: PORTB = 0b00000000;
   755  0202  1283               	bcf	3,5	;RP0=0, select bank0
   756  0203  1303               	bcf	3,6	;RP1=0, select bank0
   757  0204  0186               	clrf	6	;volatile
   758                           
   759                           ;Relogio_digital_timer0.c: 646: TRISC = 0b00000000;
   760  0205  1683               	bsf	3,5	;RP0=1, select bank1
   761  0206  1303               	bcf	3,6	;RP1=0, select bank1
   762  0207  0187               	clrf	7	;volatile
   763                           
   764                           ;Relogio_digital_timer0.c: 647: PORTC = 0b00000000;
   765  0208  1283               	bcf	3,5	;RP0=0, select bank0
   766  0209  1303               	bcf	3,6	;RP1=0, select bank0
   767  020A  0187               	clrf	7	;volatile
   768                           
   769                           ;Relogio_digital_timer0.c: 648: TRISD = 0b00000000;
   770  020B  1683               	bsf	3,5	;RP0=1, select bank1
   771  020C  1303               	bcf	3,6	;RP1=0, select bank1
   772  020D  0188               	clrf	8	;volatile
   773                           
   774                           ;Relogio_digital_timer0.c: 649: PORTD = 0b00000000;
   775  020E  1283               	bcf	3,5	;RP0=0, select bank0
   776  020F  1303               	bcf	3,6	;RP1=0, select bank0
   777  0210  0188               	clrf	8	;volatile
   778                           
   779                           ;Relogio_digital_timer0.c: 650: TRISE = 0b00000000;
   780  0211  1683               	bsf	3,5	;RP0=1, select bank1
   781  0212  1303               	bcf	3,6	;RP1=0, select bank1
   782  0213  0189               	clrf	9	;volatile
   783                           
   784                           ;Relogio_digital_timer0.c: 651: PORTE = 0b00000000;
   785  0214  1283               	bcf	3,5	;RP0=0, select bank0
   786  0215  1303               	bcf	3,6	;RP1=0, select bank0
   787  0216  0189               	clrf	9	;volatile
   788                           
   789                           ;Relogio_digital_timer0.c: 653: INTCONbits.GIE = 1;
   790  0217  178B               	bsf	11,7	;volatile
   791                           
   792                           ;Relogio_digital_timer0.c: 654: INTCONbits.PEIE = 1;
   793  0218  170B               	bsf	11,6	;volatile
   794                           
   795                           ;Relogio_digital_timer0.c: 655: INTCONbits.TMR0IE = 1;
   796  0219  168B               	bsf	11,5	;volatile
   797                           
   798                           ;Relogio_digital_timer0.c: 657: OPTION_REGbits.T0CS = 0;
   799  021A  1683               	bsf	3,5	;RP0=1, select bank1
   800  021B  1303               	bcf	3,6	;RP1=0, select bank1
   801  021C  1281               	bcf	1,5	;volatile
   802                           
   803                           ;Relogio_digital_timer0.c: 658: OPTION_REGbits.T0SE = 0;
   804  021D  1201               	bcf	1,4	;volatile
   805                           
   806                           ;Relogio_digital_timer0.c: 659: OPTION_REGbits.PSA = 0;
   807  021E  1181               	bcf	1,3	;volatile
   808                           
   809                           ;Relogio_digital_timer0.c: 660: OPTION_REGbits.PS2 = 1;
   810  021F  1501               	bsf	1,2	;volatile
   811                           
   812                           ;Relogio_digital_timer0.c: 661: OPTION_REGbits.PS1 = 0;
   813  0220  1081               	bcf	1,1	;volatile
   814                           
   815                           ;Relogio_digital_timer0.c: 662: OPTION_REGbits.PS0 = 0;
   816  0221  1001               	bcf	1,0	;volatile
   817                           
   818                           ;Relogio_digital_timer0.c: 663: TMR0 = 112;
   819  0222  3070               	movlw	112
   820  0223  1283               	bcf	3,5	;RP0=0, select bank0
   821  0224  1303               	bcf	3,6	;RP1=0, select bank0
   822  0225  0081               	movwf	1	;volatile
   823                           
   824                           ;Relogio_digital_timer0.c: 665: segundos = 0;
   825  0226  01BC               	clrf	_segundos
   826  0227  01BD               	clrf	_segundos+1
   827                           
   828                           ;Relogio_digital_timer0.c: 666: minutos = 0;
   829  0228  01BA               	clrf	_minutos
   830  0229  01BB               	clrf	_minutos+1
   831                           
   832                           ;Relogio_digital_timer0.c: 667: horas = 0;
   833  022A  01B8               	clrf	_horas
   834  022B  01B9               	clrf	_horas+1
   835                           
   836                           ;Relogio_digital_timer0.c: 668: textoNaTela[0] = '0';
   837  022C  3030               	movlw	48
   838  022D  00D4               	movwf	??_main
   839  022E  0854               	movf	??_main,w
   840  022F  00BE               	movwf	_textoNaTela
   841                           
   842                           ;Relogio_digital_timer0.c: 669: textoNaTela[1] = '0';
   843  0230  3030               	movlw	48
   844  0231  00D4               	movwf	??_main
   845  0232  0854               	movf	??_main,w
   846  0233  00BF               	movwf	_textoNaTela+1
   847                           
   848                           ;Relogio_digital_timer0.c: 670: textoNaTela[2] = ':';
   849  0234  303A               	movlw	58
   850  0235  00D4               	movwf	??_main
   851  0236  0854               	movf	??_main,w
   852  0237  00C0               	movwf	_textoNaTela+2
   853                           
   854                           ;Relogio_digital_timer0.c: 671: textoNaTela[3] = '0';
   855  0238  3030               	movlw	48
   856  0239  00D4               	movwf	??_main
   857  023A  0854               	movf	??_main,w
   858  023B  00C1               	movwf	_textoNaTela+3
   859                           
   860                           ;Relogio_digital_timer0.c: 672: textoNaTela[4] = '0';
   861  023C  3030               	movlw	48
   862  023D  00D4               	movwf	??_main
   863  023E  0854               	movf	??_main,w
   864  023F  00C2               	movwf	_textoNaTela+4
   865                           
   866                           ;Relogio_digital_timer0.c: 673: textoNaTela[5] = ':';
   867  0240  303A               	movlw	58
   868  0241  00D4               	movwf	??_main
   869  0242  0854               	movf	??_main,w
   870  0243  00C3               	movwf	_textoNaTela+5
   871                           
   872                           ;Relogio_digital_timer0.c: 674: textoNaTela[6] = '0';
   873  0244  3030               	movlw	48
   874  0245  00D4               	movwf	??_main
   875  0246  0854               	movf	??_main,w
   876  0247  00C4               	movwf	_textoNaTela+6
   877                           
   878                           ;Relogio_digital_timer0.c: 675: textoNaTela[7] = '0';
   879  0248  3030               	movlw	48
   880  0249  00D4               	movwf	??_main
   881  024A  0854               	movf	??_main,w
   882  024B  00C5               	movwf	_textoNaTela+7
   883                           
   884                           ;Relogio_digital_timer0.c: 676: textoNaTela[8] = '\0';
   885  024C  01C6               	clrf	_textoNaTela+8
   886                           
   887                           ;Relogio_digital_timer0.c: 679: LCD_Init();
   888  024D  120A  118A  25A8  120A  118A  	fcall	_LCD_Init
   889                           
   890                           ;Relogio_digital_timer0.c: 680: LCD_Clear();
   891  0252  120A  158A  27A5  120A  118A  	fcall	_LCD_Clear
   892                           
   893                           ;Relogio_digital_timer0.c: 681: LCD_Cursor(0,0);
   894  0257  1283               	bcf	3,5	;RP0=0, select bank0
   895  0258  1303               	bcf	3,6	;RP1=0, select bank0
   896  0259  01C7               	clrf	LCD_Cursor@Col
   897  025A  3000               	movlw	0
   898  025B  120A  158A  2671  120A  118A  	fcall	_LCD_Cursor
   899  0260                     l3016:	
   900                           ;Relogio_digital_timer0.c: 683: while(1) {
   901                           
   902                           
   903                           ;Relogio_digital_timer0.c: 684: if (milissegundos >= 500) {
   904  0260  1283               	bcf	3,5	;RP0=0, select bank0
   905  0261  1303               	bcf	3,6	;RP1=0, select bank0
   906  0262  0837               	movf	_milissegundos+1,w
   907  0263  3A80               	xorlw	128
   908  0264  00FF               	movwf	127
   909  0265  3081               	movlw	129
   910  0266  027F               	subwf	127,w
   911  0267  1D03               	skipz
   912  0268  2A6B               	goto	u3575
   913  0269  30F4               	movlw	244
   914  026A  0236               	subwf	_milissegundos,w
   915  026B                     u3575:	
   916  026B  1C03               	skipc
   917  026C  2A74               	goto	l3020
   918                           
   919                           ;Relogio_digital_timer0.c: 685: flagEstadoPiscando = 1;
   920  026D  3001               	movlw	1
   921  026E  1283               	bcf	3,5	;RP0=0, select bank0
   922  026F  1303               	bcf	3,6	;RP1=0, select bank0
   923  0270  00A6               	movwf	_flagEstadoPiscando
   924  0271  3000               	movlw	0
   925  0272  00A7               	movwf	_flagEstadoPiscando+1
   926                           
   927                           ;Relogio_digital_timer0.c: 686: } else {
   928  0273  2A78               	goto	l3022
   929  0274                     l3020:	
   930                           
   931                           ;Relogio_digital_timer0.c: 687: flagEstadoPiscando = 0;
   932  0274  1283               	bcf	3,5	;RP0=0, select bank0
   933  0275  1303               	bcf	3,6	;RP1=0, select bank0
   934  0276  01A6               	clrf	_flagEstadoPiscando
   935  0277  01A7               	clrf	_flagEstadoPiscando+1
   936  0278                     l3022:	
   937                           
   938                           ;Relogio_digital_timer0.c: 688: }
   939                           ;Relogio_digital_timer0.c: 690: exibeTela();
   940  0278  120A  118A  2374  120A  118A  	fcall	_exibeTela
   941                           
   942                           ;Relogio_digital_timer0.c: 692: if(PORTBbits.RB0) flagB0 = 1;
   943  027D  1283               	bcf	3,5	;RP0=0, select bank0
   944  027E  1303               	bcf	3,6	;RP1=0, select bank0
   945  027F  1C06               	btfss	6,0	;volatile
   946  0280  2A85               	goto	l3028
   947  0281  3001               	movlw	1
   948  0282  00AC               	movwf	_flagB0
   949  0283  3000               	movlw	0
   950  0284  00AD               	movwf	_flagB0+1
   951  0285                     l3028:	
   952                           
   953                           ;Relogio_digital_timer0.c: 693: if(PORTBbits.RB1) flagB1 = 1;
   954  0285  1C86               	btfss	6,1	;volatile
   955  0286  2A8B               	goto	l253
   956  0287  3001               	movlw	1
   957  0288  00AA               	movwf	_flagB1
   958  0289  3000               	movlw	0
   959  028A  00AB               	movwf	_flagB1+1
   960  028B                     l253:	
   961                           
   962                           ;Relogio_digital_timer0.c: 695: if (horas == horasAlarme && minutos == minutosAlarme) {
   963  028B  0833               	movf	_horasAlarme+1,w
   964  028C  0639               	xorwf	_horas+1,w
   965  028D  1D03               	skipz
   966  028E  2A91               	goto	u3605
   967  028F  0832               	movf	_horasAlarme,w
   968  0290  0638               	xorwf	_horas,w
   969  0291                     u3605:	
   970  0291  1D03               	skipz
   971  0292  2A9D               	goto	l254
   972  0293  0835               	movf	_minutosAlarme+1,w
   973  0294  063B               	xorwf	_minutos+1,w
   974  0295  1D03               	skipz
   975  0296  2A99               	goto	u3615
   976  0297  0834               	movf	_minutosAlarme,w
   977  0298  063A               	xorwf	_minutos,w
   978  0299                     u3615:	
   979  0299  1D03               	skipz
   980  029A  2A9D               	goto	l254
   981                           
   982                           ;Relogio_digital_timer0.c: 696: PORTBbits.RB4 = 1;
   983  029B  1606               	bsf	6,4	;volatile
   984                           
   985                           ;Relogio_digital_timer0.c: 697: } else {
   986  029C  2A9E               	goto	l255
   987  029D                     l254:	
   988                           
   989                           ;Relogio_digital_timer0.c: 698: PORTBbits.RB4 = 0;
   990  029D  1206               	bcf	6,4	;volatile
   991  029E                     l255:	
   992                           
   993                           ;Relogio_digital_timer0.c: 699: }
   994                           ;Relogio_digital_timer0.c: 701: if (PORTBbits.RB0 == 0 && flagB0) {
   995  029E  1806               	btfsc	6,0	;volatile
   996  029F  2AAD               	goto	l3042
   997  02A0  082C               	movf	_flagB0,w
   998  02A1  042D               	iorwf	_flagB0+1,w
   999  02A2  1903               	btfsc	3,2
  1000  02A3  2AAD               	goto	l3042
  1001                           
  1002                           ;Relogio_digital_timer0.c: 702: executaAcaoPrimeiroBotao();
  1003  02A4  120A  118A  213C  120A  118A  	fcall	_executaAcaoPrimeiroBotao
  1004                           
  1005                           ;Relogio_digital_timer0.c: 704: flagB0 = 0;
  1006  02A9  1283               	bcf	3,5	;RP0=0, select bank0
  1007  02AA  1303               	bcf	3,6	;RP1=0, select bank0
  1008  02AB  01AC               	clrf	_flagB0
  1009  02AC  01AD               	clrf	_flagB0+1
  1010  02AD                     l3042:	
  1011                           
  1012                           ;Relogio_digital_timer0.c: 705: }
  1013                           ;Relogio_digital_timer0.c: 707: if (PORTBbits.RB1 == 0 && flagB1) {
  1014  02AD  1886               	btfsc	6,1	;volatile
  1015  02AE  2A60               	goto	l3016
  1016  02AF  082A               	movf	_flagB1,w
  1017  02B0  042B               	iorwf	_flagB1+1,w
  1018  02B1  1903               	btfsc	3,2
  1019  02B2  2A60               	goto	l3016
  1020                           
  1021                           ;Relogio_digital_timer0.c: 708: executaAcaoSegundoBotao();
  1022  02B3  120A  118A  203C  120A  118A  	fcall	_executaAcaoSegundoBotao
  1023                           
  1024                           ;Relogio_digital_timer0.c: 710: flagB1 = 0;
  1025  02B8  1283               	bcf	3,5	;RP0=0, select bank0
  1026  02B9  1303               	bcf	3,6	;RP1=0, select bank0
  1027  02BA  01AA               	clrf	_flagB1
  1028  02BB  01AB               	clrf	_flagB1+1
  1029  02BC  2A60               	goto	l3016
  1030  02BD                     __end_of_main:	
  1031                           
  1032                           	psect	text1
  1033  0374                     __ptext1:	
  1034 ;; *************** function _exibeTela *****************
  1035 ;; Defined at:
  1036 ;;		line 616 in file "E:\Google Drive\Sistemas Embarcados\Projeto Relógio\Código MPLAB\Projeto_Relogio\Relogio_digital_t
      +imer0.c"
  1037 ;; Parameters:    Size  Location     Type
  1038 ;;		None
  1039 ;; Auto vars:     Size  Location     Type
  1040 ;;		None
  1041 ;; Return value:  Size  Location     Type
  1042 ;;                  1    wreg      void 
  1043 ;; Registers used:
  1044 ;;		wreg, fsr0l, fsr0h, status,2, status,0, btemp+1, pclath, cstack
  1045 ;; Tracked objects:
  1046 ;;		On entry : 0/0
  1047 ;;		On exit  : 0/0
  1048 ;;		Unchanged: 0/0
  1049 ;; Data sizes:     COMMON   BANK0   BANK1   BANK3   BANK2
  1050 ;;      Params:         0       0       0       0       0
  1051 ;;      Locals:         0       0       0       0       0
  1052 ;;      Temps:          0       0       0       0       0
  1053 ;;      Totals:         0       0       0       0       0
  1054 ;;Total ram usage:        0 bytes
  1055 ;; Hardware stack levels used:    1
  1056 ;; Hardware stack levels required when called:    5
  1057 ;; This function calls:
  1058 ;;		_LCD_Clear
  1059 ;;		_exibeHorarioNormalmente
  1060 ;;		_exibeHorarioPiscando
  1061 ;;		_exibeHorarioPiscandoAlarme
  1062 ;;		_mostraMenuOpcoes
  1063 ;;		_opcoesDeExibicaoHorario
  1064 ;; This function is called by:
  1065 ;;		_main
  1066 ;; This function uses a non-reentrant model
  1067 ;;
  1068                           
  1069                           
  1070                           ;psect for function _exibeTela
  1071  0374                     _exibeTela:	
  1072                           
  1073                           ;Relogio_digital_timer0.c: 618: if (flagLimparTela == 1) {
  1074                           
  1075                           ;incstack = 0
  1076                           ; Regs used in _exibeTela: [wreg-fsr0h+status,2+status,0+btemp+1+pclath+cstack]
  1077  0374  1283               	bcf	3,5	;RP0=0, select bank0
  1078  0375  1303               	bcf	3,6	;RP1=0, select bank0
  1079  0376  0324               	decf	_flagLimparTela,w
  1080  0377  0425               	iorwf	_flagLimparTela+1,w
  1081  0378  1D03               	btfss	3,2
  1082  0379  2B98               	goto	l2952
  1083                           
  1084                           ;Relogio_digital_timer0.c: 619: LCD_Clear();
  1085  037A  120A  158A  27A5  120A  118A  	fcall	_LCD_Clear
  1086                           
  1087                           ;Relogio_digital_timer0.c: 620: flagLimparTela = 0;
  1088  037F  1283               	bcf	3,5	;RP0=0, select bank0
  1089  0380  1303               	bcf	3,6	;RP1=0, select bank0
  1090  0381  01A4               	clrf	_flagLimparTela
  1091  0382  01A5               	clrf	_flagLimparTela+1
  1092                           
  1093                           ;Relogio_digital_timer0.c: 621: }
  1094                           ;Relogio_digital_timer0.c: 623: switch(escolhaModo) {
  1095  0383  2B98               	goto	l2952
  1096  0384                     l2940:	
  1097                           ;Relogio_digital_timer0.c: 624: case relogio:
  1098                           
  1099                           
  1100                           ;Relogio_digital_timer0.c: 625: exibeHorarioNormalmente();
  1101  0384  120A  118A  2498   	fcall	_exibeHorarioNormalmente
  1102                           
  1103                           ;Relogio_digital_timer0.c: 626: break;
  1104  0387  0008               	return
  1105  0388                     l2942:	
  1106                           ;Relogio_digital_timer0.c: 627: case menu:
  1107                           
  1108                           
  1109                           ;Relogio_digital_timer0.c: 628: mostraMenuOpcoes();
  1110  0388  120A  118A  22BD   	fcall	_mostraMenuOpcoes
  1111                           
  1112                           ;Relogio_digital_timer0.c: 629: break;
  1113  038B  0008               	return
  1114  038C                     l2944:	
  1115                           ;Relogio_digital_timer0.c: 630: case edicaoHorario:
  1116                           
  1117                           
  1118                           ;Relogio_digital_timer0.c: 631: exibeHorarioPiscando();
  1119  038C  120A  158A  274E   	fcall	_exibeHorarioPiscando
  1120                           
  1121                           ;Relogio_digital_timer0.c: 632: break;
  1122  038F  0008               	return
  1123  0390                     l2946:	
  1124                           ;Relogio_digital_timer0.c: 633: case alarme:
  1125                           
  1126                           
  1127                           ;Relogio_digital_timer0.c: 634: exibeHorarioPiscandoAlarme();
  1128  0390  120A  158A  26DE   	fcall	_exibeHorarioPiscandoAlarme
  1129                           
  1130                           ;Relogio_digital_timer0.c: 635: break;
  1131  0393  0008               	return
  1132  0394                     l2948:	
  1133                           ;Relogio_digital_timer0.c: 636: case exibicaoHorario:
  1134                           
  1135                           
  1136                           ;Relogio_digital_timer0.c: 637: opcoesDeExibicaoHorario();
  1137  0394  120A  118A  271C   	fcall	_opcoesDeExibicaoHorario
  1138                           
  1139                           ;Relogio_digital_timer0.c: 639: }
  1140                           
  1141                           ;Relogio_digital_timer0.c: 638: break;
  1142  0397  0008               	return
  1143  0398                     l2952:	
  1144                           
  1145                           ; Switch on 2 bytes has been partitioned into a top level switch of size 1, and 1 sub-sw
      +                          itches
  1146                           ; Switch size 1, requested type "space"
  1147                           ; Number of cases is 1, Range of values is 0 to 0
  1148                           ; switch strategies available:
  1149                           ; Name         Instructions Cycles
  1150                           ; simple_byte            4     3 (average)
  1151                           ; direct_byte           11     8 (fixed)
  1152                           ; jumptable            260     6 (fixed)
  1153                           ;	Chosen strategy is simple_byte
  1154  0398  0876               	movf	_escolhaModo+1,w
  1155  0399  3A00               	xorlw	0	; case 0
  1156  039A  1903               	skipnz
  1157  039B  2B9D               	goto	l3070
  1158  039C  2BAE               	goto	l244
  1159  039D                     l3070:	
  1160                           
  1161                           ; Switch size 1, requested type "space"
  1162                           ; Number of cases is 5, Range of values is 0 to 4
  1163                           ; switch strategies available:
  1164                           ; Name         Instructions Cycles
  1165                           ; simple_byte           16     9 (average)
  1166                           ; direct_byte           23     8 (fixed)
  1167                           ; jumptable            260     6 (fixed)
  1168                           ;	Chosen strategy is simple_byte
  1169  039D  0875               	movf	_escolhaModo,w
  1170  039E  3A00               	xorlw	0	; case 0
  1171  039F  1903               	skipnz
  1172  03A0  2B84               	goto	l2940
  1173  03A1  3A01               	xorlw	1	; case 1
  1174  03A2  1903               	skipnz
  1175  03A3  2B88               	goto	l2942
  1176  03A4  3A03               	xorlw	3	; case 2
  1177  03A5  1903               	skipnz
  1178  03A6  2B8C               	goto	l2944
  1179  03A7  3A01               	xorlw	1	; case 3
  1180  03A8  1903               	skipnz
  1181  03A9  2B90               	goto	l2946
  1182  03AA  3A07               	xorlw	7	; case 4
  1183  03AB  1903               	skipnz
  1184  03AC  2B94               	goto	l2948
  1185  03AD  2BAE               	goto	l244
  1186  03AE                     l244:	
  1187  03AE  0008               	return
  1188  03AF                     __end_of_exibeTela:	
  1189                           
  1190                           	psect	text2
  1191  071C                     __ptext2:	
  1192 ;; *************** function _opcoesDeExibicaoHorario *****************
  1193 ;; Defined at:
  1194 ;;		line 546 in file "E:\Google Drive\Sistemas Embarcados\Projeto Relógio\Código MPLAB\Projeto_Relogio\Relogio_digital_t
      +imer0.c"
  1195 ;; Parameters:    Size  Location     Type
  1196 ;;		None
  1197 ;; Auto vars:     Size  Location     Type
  1198 ;;		None
  1199 ;; Return value:  Size  Location     Type
  1200 ;;                  1    wreg      void 
  1201 ;; Registers used:
  1202 ;;		wreg, fsr0l, fsr0h, status,2, status,0, btemp+1, pclath, cstack
  1203 ;; Tracked objects:
  1204 ;;		On entry : 0/0
  1205 ;;		On exit  : 0/0
  1206 ;;		Unchanged: 0/0
  1207 ;; Data sizes:     COMMON   BANK0   BANK1   BANK3   BANK2
  1208 ;;      Params:         0       0       0       0       0
  1209 ;;      Locals:         0       0       0       0       0
  1210 ;;      Temps:          0       0       0       0       0
  1211 ;;      Totals:         0       0       0       0       0
  1212 ;;Total ram usage:        0 bytes
  1213 ;; Hardware stack levels used:    1
  1214 ;; Hardware stack levels required when called:    4
  1215 ;; This function calls:
  1216 ;;		_LCD_Cursor
  1217 ;;		_LCD_WriteString
  1218 ;; This function is called by:
  1219 ;;		_exibeTela
  1220 ;; This function uses a non-reentrant model
  1221 ;;
  1222                           
  1223                           
  1224                           ;psect for function _opcoesDeExibicaoHorario
  1225  071C                     _opcoesDeExibicaoHorario:	
  1226                           
  1227                           ;Relogio_digital_timer0.c: 548: if (escolhaSubMenu == 0 && flagEstadoPiscando == 1) {
  1228                           
  1229                           ;incstack = 0
  1230                           ; Regs used in _opcoesDeExibicaoHorario: [wreg-fsr0h+status,2+status,0+btemp+1+pclath+cs
      +                          tack]
  1231  071C  1283               	bcf	3,5	;RP0=0, select bank0
  1232  071D  1303               	bcf	3,6	;RP1=0, select bank0
  1233  071E  0820               	movf	_escolhaSubMenu,w
  1234  071F  0421               	iorwf	_escolhaSubMenu+1,w
  1235  0720  1D03               	btfss	3,2
  1236  0721  2F37               	goto	l2660
  1237  0722  0326               	decf	_flagEstadoPiscando,w
  1238  0723  0427               	iorwf	_flagEstadoPiscando+1,w
  1239  0724  1D03               	btfss	3,2
  1240  0725  2F37               	goto	l2660
  1241                           
  1242                           ;Relogio_digital_timer0.c: 549: LCD_Cursor(0,0);
  1243  0726  01C7               	clrf	LCD_Cursor@Col
  1244  0727  3000               	movlw	0
  1245  0728  120A  158A  2671  120A  118A  	fcall	_LCD_Cursor
  1246                           
  1247                           ;Relogio_digital_timer0.c: 550: LCD_WriteString("     12         ");
  1248  072D  3023               	movlw	(low ((STR_1-__stringbase)| (0+32768)))& (0+255)
  1249  072E  1283               	bcf	3,5	;RP0=0, select bank0
  1250  072F  1303               	bcf	3,6	;RP1=0, select bank0
  1251  0730  00C9               	movwf	LCD_WriteString@Str
  1252  0731  3080               	movlw	128
  1253  0732  00CA               	movwf	LCD_WriteString@Str+1
  1254  0733  120A  158A  2700   	fcall	_LCD_WriteString
  1255                           
  1256                           ;Relogio_digital_timer0.c: 551: return;
  1257  0736  0008               	return
  1258  0737                     l2660:	
  1259                           
  1260                           ;Relogio_digital_timer0.c: 552: }
  1261                           ;Relogio_digital_timer0.c: 554: if (escolhaSubMenu == 1 && flagEstadoPiscando == 1) {
  1262  0737  1283               	bcf	3,5	;RP0=0, select bank0
  1263  0738  1303               	bcf	3,6	;RP1=0, select bank0
  1264  0739  0320               	decf	_escolhaSubMenu,w
  1265  073A  0421               	iorwf	_escolhaSubMenu+1,w
  1266  073B  1D03               	btfss	3,2
  1267  073C  2F52               	goto	l2670
  1268  073D  0326               	decf	_flagEstadoPiscando,w
  1269  073E  0427               	iorwf	_flagEstadoPiscando+1,w
  1270  073F  1D03               	btfss	3,2
  1271  0740  2F52               	goto	l2670
  1272                           
  1273                           ;Relogio_digital_timer0.c: 555: LCD_Cursor(0,0);
  1274  0741  01C7               	clrf	LCD_Cursor@Col
  1275  0742  3000               	movlw	0
  1276  0743  120A  158A  2671  120A  118A  	fcall	_LCD_Cursor
  1277                           
  1278                           ;Relogio_digital_timer0.c: 556: LCD_WriteString("24              ");
  1279  0748  3012               	movlw	(low ((STR_2-__stringbase)| (0+32768)))& (0+255)
  1280  0749  1283               	bcf	3,5	;RP0=0, select bank0
  1281  074A  1303               	bcf	3,6	;RP1=0, select bank0
  1282  074B  00C9               	movwf	LCD_WriteString@Str
  1283  074C  3080               	movlw	128
  1284  074D  00CA               	movwf	LCD_WriteString@Str+1
  1285  074E  120A  158A  2700   	fcall	_LCD_WriteString
  1286                           
  1287                           ;Relogio_digital_timer0.c: 557: return;
  1288  0751  0008               	return
  1289  0752                     l2670:	
  1290                           
  1291                           ;Relogio_digital_timer0.c: 558: }
  1292                           ;Relogio_digital_timer0.c: 560: LCD_Cursor(0,0);
  1293  0752  1283               	bcf	3,5	;RP0=0, select bank0
  1294  0753  1303               	bcf	3,6	;RP1=0, select bank0
  1295  0754  01C7               	clrf	LCD_Cursor@Col
  1296  0755  3000               	movlw	0
  1297  0756  120A  158A  2671  120A  118A  	fcall	_LCD_Cursor
  1298                           
  1299                           ;Relogio_digital_timer0.c: 561: LCD_WriteString("24   12         ");
  1300  075B  3034               	movlw	(low ((STR_3-__stringbase)| (0+32768)))& (0+255)
  1301  075C  1283               	bcf	3,5	;RP0=0, select bank0
  1302  075D  1303               	bcf	3,6	;RP1=0, select bank0
  1303  075E  00C9               	movwf	LCD_WriteString@Str
  1304  075F  3080               	movlw	128
  1305  0760  00CA               	movwf	LCD_WriteString@Str+1
  1306  0761  120A  158A  2700   	fcall	_LCD_WriteString
  1307  0764  0008               	return
  1308  0765                     __end_of_opcoesDeExibicaoHorario:	
  1309                           ;Relogio_digital_timer0.c: 563: return;
  1310                           
  1311                           
  1312                           	psect	text3
  1313  02BD                     __ptext3:	
  1314 ;; *************** function _mostraMenuOpcoes *****************
  1315 ;; Defined at:
  1316 ;;		line 566 in file "E:\Google Drive\Sistemas Embarcados\Projeto Relógio\Código MPLAB\Projeto_Relogio\Relogio_digital_t
      +imer0.c"
  1317 ;; Parameters:    Size  Location     Type
  1318 ;;		None
  1319 ;; Auto vars:     Size  Location     Type
  1320 ;;		None
  1321 ;; Return value:  Size  Location     Type
  1322 ;;                  1    wreg      void 
  1323 ;; Registers used:
  1324 ;;		wreg, fsr0l, fsr0h, status,2, status,0, btemp+1, pclath, cstack
  1325 ;; Tracked objects:
  1326 ;;		On entry : 0/0
  1327 ;;		On exit  : 0/0
  1328 ;;		Unchanged: 0/0
  1329 ;; Data sizes:     COMMON   BANK0   BANK1   BANK3   BANK2
  1330 ;;      Params:         0       0       0       0       0
  1331 ;;      Locals:         0       0       0       0       0
  1332 ;;      Temps:          0       0       0       0       0
  1333 ;;      Totals:         0       0       0       0       0
  1334 ;;Total ram usage:        0 bytes
  1335 ;; Hardware stack levels used:    1
  1336 ;; Hardware stack levels required when called:    4
  1337 ;; This function calls:
  1338 ;;		_LCD_Cursor
  1339 ;;		_LCD_WriteString
  1340 ;; This function is called by:
  1341 ;;		_exibeTela
  1342 ;; This function uses a non-reentrant model
  1343 ;;
  1344                           
  1345                           
  1346                           ;psect for function _mostraMenuOpcoes
  1347  02BD                     _mostraMenuOpcoes:	
  1348                           
  1349                           ;Relogio_digital_timer0.c: 568: if (escolhaMenu == edicaoHorario && flagEstadoPiscando =
      +                          = 1) {
  1350                           
  1351                           ;incstack = 0
  1352                           ; Regs used in _mostraMenuOpcoes: [wreg-fsr0h+status,2+status,0+btemp+1+pclath+cstack]
  1353  02BD  3002               	movlw	2
  1354  02BE  1283               	bcf	3,5	;RP0=0, select bank0
  1355  02BF  1303               	bcf	3,6	;RP1=0, select bank0
  1356  02C0  0655               	xorwf	_escolhaMenu,w
  1357  02C1  0456               	iorwf	_escolhaMenu+1,w
  1358  02C2  1D03               	btfss	3,2
  1359  02C3  2AED               	goto	l2688
  1360  02C4  0326               	decf	_flagEstadoPiscando,w
  1361  02C5  0427               	iorwf	_flagEstadoPiscando+1,w
  1362  02C6  1D03               	btfss	3,2
  1363  02C7  2AED               	goto	l2688
  1364                           
  1365                           ;Relogio_digital_timer0.c: 569: LCD_Cursor(0,0);
  1366  02C8  01C7               	clrf	LCD_Cursor@Col
  1367  02C9  3000               	movlw	0
  1368  02CA  120A  158A  2671  120A  118A  	fcall	_LCD_Cursor
  1369                           
  1370                           ;Relogio_digital_timer0.c: 570: LCD_WriteString("         Alarme ");
  1371  02CF  3067               	movlw	(low ((STR_4-__stringbase)| (0+32768)))& (0+255)
  1372  02D0  1283               	bcf	3,5	;RP0=0, select bank0
  1373  02D1  1303               	bcf	3,6	;RP1=0, select bank0
  1374  02D2  00C9               	movwf	LCD_WriteString@Str
  1375  02D3  3080               	movlw	128
  1376  02D4  00CA               	movwf	LCD_WriteString@Str+1
  1377  02D5  120A  158A  2700  120A  118A  	fcall	_LCD_WriteString
  1378                           
  1379                           ;Relogio_digital_timer0.c: 571: LCD_Cursor(1,0);
  1380  02DA  1283               	bcf	3,5	;RP0=0, select bank0
  1381  02DB  1303               	bcf	3,6	;RP1=0, select bank0
  1382  02DC  01C7               	clrf	LCD_Cursor@Col
  1383  02DD  3001               	movlw	1
  1384  02DE  120A  158A  2671  120A  118A  	fcall	_LCD_Cursor
  1385                           
  1386                           ;Relogio_digital_timer0.c: 572: LCD_WriteString("Modo Exibicao   ");
  1387  02E3  3056               	movlw	(low ((STR_5-__stringbase)| (0+32768)))& (0+255)
  1388  02E4  1283               	bcf	3,5	;RP0=0, select bank0
  1389  02E5  1303               	bcf	3,6	;RP1=0, select bank0
  1390  02E6  00C9               	movwf	LCD_WriteString@Str
  1391  02E7  3080               	movlw	128
  1392  02E8  00CA               	movwf	LCD_WriteString@Str+1
  1393  02E9  120A  158A  2700   	fcall	_LCD_WriteString
  1394                           
  1395                           ;Relogio_digital_timer0.c: 573: return;
  1396  02EC  0008               	return
  1397  02ED                     l2688:	
  1398                           
  1399                           ;Relogio_digital_timer0.c: 574: }
  1400                           ;Relogio_digital_timer0.c: 576: if (escolhaMenu == alarme && flagEstadoPiscando == 1) {
  1401  02ED  3003               	movlw	3
  1402  02EE  1283               	bcf	3,5	;RP0=0, select bank0
  1403  02EF  1303               	bcf	3,6	;RP1=0, select bank0
  1404  02F0  0655               	xorwf	_escolhaMenu,w
  1405  02F1  0456               	iorwf	_escolhaMenu+1,w
  1406  02F2  1D03               	btfss	3,2
  1407  02F3  2B1D               	goto	l2700
  1408  02F4  0326               	decf	_flagEstadoPiscando,w
  1409  02F5  0427               	iorwf	_flagEstadoPiscando+1,w
  1410  02F6  1D03               	btfss	3,2
  1411  02F7  2B1D               	goto	l2700
  1412                           
  1413                           ;Relogio_digital_timer0.c: 577: LCD_Cursor(0,0);
  1414  02F8  01C7               	clrf	LCD_Cursor@Col
  1415  02F9  3000               	movlw	0
  1416  02FA  120A  158A  2671  120A  118A  	fcall	_LCD_Cursor
  1417                           
  1418                           ;Relogio_digital_timer0.c: 578: LCD_WriteString("Horario         ");
  1419  02FF  3045               	movlw	(low ((STR_6-__stringbase)| (0+32768)))& (0+255)
  1420  0300  1283               	bcf	3,5	;RP0=0, select bank0
  1421  0301  1303               	bcf	3,6	;RP1=0, select bank0
  1422  0302  00C9               	movwf	LCD_WriteString@Str
  1423  0303  3080               	movlw	128
  1424  0304  00CA               	movwf	LCD_WriteString@Str+1
  1425  0305  120A  158A  2700  120A  118A  	fcall	_LCD_WriteString
  1426                           
  1427                           ;Relogio_digital_timer0.c: 579: LCD_Cursor(1,0);
  1428  030A  1283               	bcf	3,5	;RP0=0, select bank0
  1429  030B  1303               	bcf	3,6	;RP1=0, select bank0
  1430  030C  01C7               	clrf	LCD_Cursor@Col
  1431  030D  3001               	movlw	1
  1432  030E  120A  158A  2671  120A  118A  	fcall	_LCD_Cursor
  1433                           
  1434                           ;Relogio_digital_timer0.c: 580: LCD_WriteString("Modo Exibicao   ");
  1435  0313  3056               	movlw	(low ((STR_5-__stringbase)| (0+32768)))& (0+255)
  1436  0314  1283               	bcf	3,5	;RP0=0, select bank0
  1437  0315  1303               	bcf	3,6	;RP1=0, select bank0
  1438  0316  00C9               	movwf	LCD_WriteString@Str
  1439  0317  3080               	movlw	128
  1440  0318  00CA               	movwf	LCD_WriteString@Str+1
  1441  0319  120A  158A  2700   	fcall	_LCD_WriteString
  1442                           
  1443                           ;Relogio_digital_timer0.c: 581: return;
  1444  031C  0008               	return
  1445  031D                     l2700:	
  1446                           
  1447                           ;Relogio_digital_timer0.c: 582: }
  1448                           ;Relogio_digital_timer0.c: 584: if (escolhaMenu == exibicaoHorario && flagEstadoPiscando
      +                           == 1) {
  1449  031D  3004               	movlw	4
  1450  031E  1283               	bcf	3,5	;RP0=0, select bank0
  1451  031F  1303               	bcf	3,6	;RP1=0, select bank0
  1452  0320  0655               	xorwf	_escolhaMenu,w
  1453  0321  0456               	iorwf	_escolhaMenu+1,w
  1454  0322  1D03               	btfss	3,2
  1455  0323  2B4D               	goto	l2712
  1456  0324  0326               	decf	_flagEstadoPiscando,w
  1457  0325  0427               	iorwf	_flagEstadoPiscando+1,w
  1458  0326  1D03               	btfss	3,2
  1459  0327  2B4D               	goto	l2712
  1460                           
  1461                           ;Relogio_digital_timer0.c: 585: LCD_Cursor(0,0);
  1462  0328  01C7               	clrf	LCD_Cursor@Col
  1463  0329  3000               	movlw	0
  1464  032A  120A  158A  2671  120A  118A  	fcall	_LCD_Cursor
  1465                           
  1466                           ;Relogio_digital_timer0.c: 586: LCD_WriteString("Horario  Alarme ");
  1467  032F  3078               	movlw	(low ((STR_8-__stringbase)| (0+32768)))& (0+255)
  1468  0330  1283               	bcf	3,5	;RP0=0, select bank0
  1469  0331  1303               	bcf	3,6	;RP1=0, select bank0
  1470  0332  00C9               	movwf	LCD_WriteString@Str
  1471  0333  3080               	movlw	128
  1472  0334  00CA               	movwf	LCD_WriteString@Str+1
  1473  0335  120A  158A  2700  120A  118A  	fcall	_LCD_WriteString
  1474                           
  1475                           ;Relogio_digital_timer0.c: 587: LCD_Cursor(1,0);
  1476  033A  1283               	bcf	3,5	;RP0=0, select bank0
  1477  033B  1303               	bcf	3,6	;RP1=0, select bank0
  1478  033C  01C7               	clrf	LCD_Cursor@Col
  1479  033D  3001               	movlw	1
  1480  033E  120A  158A  2671  120A  118A  	fcall	_LCD_Cursor
  1481                           
  1482                           ;Relogio_digital_timer0.c: 588: LCD_WriteString("                ");
  1483  0343  3001               	movlw	(low ((STR_9-__stringbase)| (0+32768)))& (0+255)
  1484  0344  1283               	bcf	3,5	;RP0=0, select bank0
  1485  0345  1303               	bcf	3,6	;RP1=0, select bank0
  1486  0346  00C9               	movwf	LCD_WriteString@Str
  1487  0347  3080               	movlw	128
  1488  0348  00CA               	movwf	LCD_WriteString@Str+1
  1489  0349  120A  158A  2700   	fcall	_LCD_WriteString
  1490                           
  1491                           ;Relogio_digital_timer0.c: 589: return;
  1492  034C  0008               	return
  1493  034D                     l2712:	
  1494                           
  1495                           ;Relogio_digital_timer0.c: 590: }
  1496                           ;Relogio_digital_timer0.c: 592: LCD_Cursor(0,0);
  1497  034D  1283               	bcf	3,5	;RP0=0, select bank0
  1498  034E  1303               	bcf	3,6	;RP1=0, select bank0
  1499  034F  01C7               	clrf	LCD_Cursor@Col
  1500  0350  3000               	movlw	0
  1501  0351  120A  158A  2671  120A  118A  	fcall	_LCD_Cursor
  1502                           
  1503                           ;Relogio_digital_timer0.c: 593: LCD_WriteString("Horario  Alarme ");
  1504  0356  3078               	movlw	(low ((STR_8-__stringbase)| (0+32768)))& (0+255)
  1505  0357  1283               	bcf	3,5	;RP0=0, select bank0
  1506  0358  1303               	bcf	3,6	;RP1=0, select bank0
  1507  0359  00C9               	movwf	LCD_WriteString@Str
  1508  035A  3080               	movlw	128
  1509  035B  00CA               	movwf	LCD_WriteString@Str+1
  1510  035C  120A  158A  2700  120A  118A  	fcall	_LCD_WriteString
  1511                           
  1512                           ;Relogio_digital_timer0.c: 594: LCD_Cursor(1,0);
  1513  0361  1283               	bcf	3,5	;RP0=0, select bank0
  1514  0362  1303               	bcf	3,6	;RP1=0, select bank0
  1515  0363  01C7               	clrf	LCD_Cursor@Col
  1516  0364  3001               	movlw	1
  1517  0365  120A  158A  2671  120A  118A  	fcall	_LCD_Cursor
  1518                           
  1519                           ;Relogio_digital_timer0.c: 595: LCD_WriteString("Modo Exibicao   ");
  1520  036A  3056               	movlw	(low ((STR_5-__stringbase)| (0+32768)))& (0+255)
  1521  036B  1283               	bcf	3,5	;RP0=0, select bank0
  1522  036C  1303               	bcf	3,6	;RP1=0, select bank0
  1523  036D  00C9               	movwf	LCD_WriteString@Str
  1524  036E  3080               	movlw	128
  1525  036F  00CA               	movwf	LCD_WriteString@Str+1
  1526  0370  120A  158A  2700   	fcall	_LCD_WriteString
  1527  0373  0008               	return
  1528  0374                     __end_of_mostraMenuOpcoes:	
  1529                           ;Relogio_digital_timer0.c: 597: return;
  1530                           
  1531                           
  1532                           	psect	text4
  1533  0EDE                     __ptext4:	
  1534 ;; *************** function _exibeHorarioPiscandoAlarme *****************
  1535 ;; Defined at:
  1536 ;;		line 535 in file "E:\Google Drive\Sistemas Embarcados\Projeto Relógio\Código MPLAB\Projeto_Relogio\Relogio_digital_t
      +imer0.c"
  1537 ;; Parameters:    Size  Location     Type
  1538 ;;		None
  1539 ;; Auto vars:     Size  Location     Type
  1540 ;;		None
  1541 ;; Return value:  Size  Location     Type
  1542 ;;                  1    wreg      void 
  1543 ;; Registers used:
  1544 ;;		wreg, fsr0l, fsr0h, status,2, status,0, btemp+1, pclath, cstack
  1545 ;; Tracked objects:
  1546 ;;		On entry : 0/0
  1547 ;;		On exit  : 0/0
  1548 ;;		Unchanged: 0/0
  1549 ;; Data sizes:     COMMON   BANK0   BANK1   BANK3   BANK2
  1550 ;;      Params:         0       0       0       0       0
  1551 ;;      Locals:         0       0       0       0       0
  1552 ;;      Temps:          0       1       0       0       0
  1553 ;;      Totals:         0       1       0       0       0
  1554 ;;Total ram usage:        1 bytes
  1555 ;; Hardware stack levels used:    1
  1556 ;; Hardware stack levels required when called:    4
  1557 ;; This function calls:
  1558 ;;		_LCD_Cursor
  1559 ;;		_LCD_WriteString
  1560 ;;		_deveExibirHoras
  1561 ;;		_deveExibirMinutos
  1562 ;; This function is called by:
  1563 ;;		_exibeTela
  1564 ;; This function uses a non-reentrant model
  1565 ;;
  1566                           
  1567                           
  1568                           ;psect for function _exibeHorarioPiscandoAlarme
  1569  0EDE                     _exibeHorarioPiscandoAlarme:	
  1570                           
  1571                           ;Relogio_digital_timer0.c: 537: deveExibirHoras();
  1572                           
  1573                           ;incstack = 0
  1574                           ; Regs used in _exibeHorarioPiscandoAlarme: [wreg-fsr0h+status,2+status,0+btemp+1+pclath
      +                          +cstack]
  1575  0EDE  120A  118A  27AC  120A  158A  	fcall	_deveExibirHoras
  1576                           
  1577                           ;Relogio_digital_timer0.c: 538: deveExibirMinutos();
  1578  0EE3  120A  118A  2765  120A  158A  	fcall	_deveExibirMinutos
  1579                           
  1580                           ;Relogio_digital_timer0.c: 539: textoNaTela[2] = ':';
  1581  0EE8  303A               	movlw	58
  1582  0EE9  1283               	bcf	3,5	;RP0=0, select bank0
  1583  0EEA  1303               	bcf	3,6	;RP1=0, select bank0
  1584  0EEB  00D3               	movwf	??_exibeHorarioPiscandoAlarme
  1585  0EEC  0853               	movf	??_exibeHorarioPiscandoAlarme,w
  1586  0EED  00C0               	movwf	_textoNaTela+2
  1587                           
  1588                           ;Relogio_digital_timer0.c: 540: textoNaTela[5] = '\0';
  1589  0EEE  01C3               	clrf	_textoNaTela+5
  1590                           
  1591                           ;Relogio_digital_timer0.c: 542: LCD_Cursor(0,0);
  1592  0EEF  01C7               	clrf	LCD_Cursor@Col
  1593  0EF0  3000               	movlw	0
  1594  0EF1  120A  158A  2671  120A  158A  	fcall	_LCD_Cursor
  1595                           
  1596                           ;Relogio_digital_timer0.c: 543: LCD_WriteString(textoNaTela);
  1597  0EF6  303E               	movlw	(low (_textoNaTela| 0))& (0+255)
  1598  0EF7  1283               	bcf	3,5	;RP0=0, select bank0
  1599  0EF8  1303               	bcf	3,6	;RP1=0, select bank0
  1600  0EF9  00C9               	movwf	LCD_WriteString@Str
  1601  0EFA  3000               	movlw	0
  1602  0EFB  00CA               	movwf	LCD_WriteString@Str+1
  1603  0EFC  120A  158A  2700   	fcall	_LCD_WriteString
  1604  0EFF  0008               	return
  1605  0F00                     __end_of_exibeHorarioPiscandoAlarme:	
  1606                           
  1607                           	psect	text5
  1608  0F4E                     __ptext5:	
  1609 ;; *************** function _exibeHorarioPiscando *****************
  1610 ;; Defined at:
  1611 ;;		line 522 in file "E:\Google Drive\Sistemas Embarcados\Projeto Relógio\Código MPLAB\Projeto_Relogio\Relogio_digital_t
      +imer0.c"
  1612 ;; Parameters:    Size  Location     Type
  1613 ;;		None
  1614 ;; Auto vars:     Size  Location     Type
  1615 ;;		None
  1616 ;; Return value:  Size  Location     Type
  1617 ;;                  1    wreg      void 
  1618 ;; Registers used:
  1619 ;;		wreg, fsr0l, fsr0h, status,2, status,0, btemp+1, pclath, cstack
  1620 ;; Tracked objects:
  1621 ;;		On entry : 0/0
  1622 ;;		On exit  : 0/0
  1623 ;;		Unchanged: 0/0
  1624 ;; Data sizes:     COMMON   BANK0   BANK1   BANK3   BANK2
  1625 ;;      Params:         0       0       0       0       0
  1626 ;;      Locals:         0       0       0       0       0
  1627 ;;      Temps:          0       1       0       0       0
  1628 ;;      Totals:         0       1       0       0       0
  1629 ;;Total ram usage:        1 bytes
  1630 ;; Hardware stack levels used:    1
  1631 ;; Hardware stack levels required when called:    4
  1632 ;; This function calls:
  1633 ;;		_LCD_Cursor
  1634 ;;		_LCD_WriteString
  1635 ;;		_deveExibirHoras
  1636 ;;		_deveExibirMinutos
  1637 ;;		_deveExibirSegundos
  1638 ;; This function is called by:
  1639 ;;		_exibeTela
  1640 ;; This function uses a non-reentrant model
  1641 ;;
  1642                           
  1643                           
  1644                           ;psect for function _exibeHorarioPiscando
  1645  0F4E                     _exibeHorarioPiscando:	
  1646                           
  1647                           ;Relogio_digital_timer0.c: 524: deveExibirHoras();
  1648                           
  1649                           ;incstack = 0
  1650                           ; Regs used in _exibeHorarioPiscando: [wreg-fsr0h+status,2+status,0+btemp+1+pclath+cstac
      +                          k]
  1651  0F4E  120A  118A  27AC  120A  158A  	fcall	_deveExibirHoras
  1652                           
  1653                           ;Relogio_digital_timer0.c: 525: deveExibirMinutos();
  1654  0F53  120A  118A  2765  120A  158A  	fcall	_deveExibirMinutos
  1655                           
  1656                           ;Relogio_digital_timer0.c: 526: deveExibirSegundos();
  1657  0F58  120A  158A  2725  120A  158A  	fcall	_deveExibirSegundos
  1658                           
  1659                           ;Relogio_digital_timer0.c: 527: textoNaTela[2] = ':';
  1660  0F5D  303A               	movlw	58
  1661  0F5E  1283               	bcf	3,5	;RP0=0, select bank0
  1662  0F5F  1303               	bcf	3,6	;RP1=0, select bank0
  1663  0F60  00D3               	movwf	??_exibeHorarioPiscando
  1664  0F61  0853               	movf	??_exibeHorarioPiscando,w
  1665  0F62  00C0               	movwf	_textoNaTela+2
  1666                           
  1667                           ;Relogio_digital_timer0.c: 528: textoNaTela[5] = ':';
  1668  0F63  303A               	movlw	58
  1669  0F64  00D3               	movwf	??_exibeHorarioPiscando
  1670  0F65  0853               	movf	??_exibeHorarioPiscando,w
  1671  0F66  00C3               	movwf	_textoNaTela+5
  1672                           
  1673                           ;Relogio_digital_timer0.c: 529: textoNaTela[8] = '\0';
  1674  0F67  01C6               	clrf	_textoNaTela+8
  1675                           
  1676                           ;Relogio_digital_timer0.c: 531: LCD_Cursor(0,0);
  1677  0F68  01C7               	clrf	LCD_Cursor@Col
  1678  0F69  3000               	movlw	0
  1679  0F6A  120A  158A  2671  120A  158A  	fcall	_LCD_Cursor
  1680                           
  1681                           ;Relogio_digital_timer0.c: 532: LCD_WriteString(textoNaTela);
  1682  0F6F  303E               	movlw	(low (_textoNaTela| 0))& (0+255)
  1683  0F70  1283               	bcf	3,5	;RP0=0, select bank0
  1684  0F71  1303               	bcf	3,6	;RP1=0, select bank0
  1685  0F72  00C9               	movwf	LCD_WriteString@Str
  1686  0F73  3000               	movlw	0
  1687  0F74  00CA               	movwf	LCD_WriteString@Str+1
  1688  0F75  120A  158A  2700   	fcall	_LCD_WriteString
  1689  0F78  0008               	return
  1690  0F79                     __end_of_exibeHorarioPiscando:	
  1691                           
  1692                           	psect	text6
  1693  0F25                     __ptext6:	
  1694 ;; *************** function _deveExibirSegundos *****************
  1695 ;; Defined at:
  1696 ;;		line 516 in file "E:\Google Drive\Sistemas Embarcados\Projeto Relógio\Código MPLAB\Projeto_Relogio\Relogio_digital_t
      +imer0.c"
  1697 ;; Parameters:    Size  Location     Type
  1698 ;;		None
  1699 ;; Auto vars:     Size  Location     Type
  1700 ;;		None
  1701 ;; Return value:  Size  Location     Type
  1702 ;;                  1    wreg      void 
  1703 ;; Registers used:
  1704 ;;		wreg, status,2, status,0, pclath, cstack
  1705 ;; Tracked objects:
  1706 ;;		On entry : 0/0
  1707 ;;		On exit  : 0/0
  1708 ;;		Unchanged: 0/0
  1709 ;; Data sizes:     COMMON   BANK0   BANK1   BANK3   BANK2
  1710 ;;      Params:         0       0       0       0       0
  1711 ;;      Locals:         0       0       0       0       0
  1712 ;;      Temps:          0       1       0       0       0
  1713 ;;      Totals:         0       1       0       0       0
  1714 ;;Total ram usage:        1 bytes
  1715 ;; Hardware stack levels used:    1
  1716 ;; Hardware stack levels required when called:    3
  1717 ;; This function calls:
  1718 ;;		___awdiv
  1719 ;;		___awmod
  1720 ;; This function is called by:
  1721 ;;		_exibeHorarioPiscando
  1722 ;; This function uses a non-reentrant model
  1723 ;;
  1724                           
  1725                           
  1726                           ;psect for function _deveExibirSegundos
  1727  0F25                     _deveExibirSegundos:	
  1728                           
  1729                           ;Relogio_digital_timer0.c: 518: textoNaTela[6] = segundos/10 + '0';
  1730                           
  1731                           ;incstack = 0
  1732                           ; Regs used in _deveExibirSegundos: [wreg+status,2+status,0+pclath+cstack]
  1733  0F25  300A               	movlw	10
  1734  0F26  1283               	bcf	3,5	;RP0=0, select bank0
  1735  0F27  1303               	bcf	3,6	;RP1=0, select bank0
  1736  0F28  00C7               	movwf	___awdiv@divisor
  1737  0F29  3000               	movlw	0
  1738  0F2A  00C8               	movwf	___awdiv@divisor+1
  1739  0F2B  083D               	movf	_segundos+1,w
  1740  0F2C  00CA               	movwf	___awdiv@dividend+1
  1741  0F2D  083C               	movf	_segundos,w
  1742  0F2E  00C9               	movwf	___awdiv@dividend
  1743  0F2F  120A  118A  261D  120A  158A  	fcall	___awdiv
  1744  0F34  1283               	bcf	3,5	;RP0=0, select bank0
  1745  0F35  1303               	bcf	3,6	;RP1=0, select bank0
  1746  0F36  0847               	movf	?___awdiv,w
  1747  0F37  3E30               	addlw	48
  1748  0F38  00D0               	movwf	??_deveExibirSegundos
  1749  0F39  0850               	movf	??_deveExibirSegundos,w
  1750  0F3A  00C4               	movwf	_textoNaTela+6
  1751                           
  1752                           ;Relogio_digital_timer0.c: 519: textoNaTela[7] = segundos%10 + '0';
  1753  0F3B  300A               	movlw	10
  1754  0F3C  00C7               	movwf	___awmod@divisor
  1755  0F3D  3000               	movlw	0
  1756  0F3E  00C8               	movwf	___awmod@divisor+1
  1757  0F3F  083D               	movf	_segundos+1,w
  1758  0F40  00CA               	movwf	___awmod@dividend+1
  1759  0F41  083C               	movf	_segundos,w
  1760  0F42  00C9               	movwf	___awmod@dividend
  1761  0F43  120A  118A  26CF   	fcall	___awmod
  1762  0F46  1283               	bcf	3,5	;RP0=0, select bank0
  1763  0F47  1303               	bcf	3,6	;RP1=0, select bank0
  1764  0F48  0847               	movf	?___awmod,w
  1765  0F49  3E30               	addlw	48
  1766  0F4A  00D0               	movwf	??_deveExibirSegundos
  1767  0F4B  0850               	movf	??_deveExibirSegundos,w
  1768  0F4C  00C5               	movwf	_textoNaTela+7
  1769  0F4D  0008               	return
  1770  0F4E                     __end_of_deveExibirSegundos:	
  1771                           
  1772                           	psect	text7
  1773  0765                     __ptext7:	
  1774 ;; *************** function _deveExibirMinutos *****************
  1775 ;; Defined at:
  1776 ;;		line 495 in file "E:\Google Drive\Sistemas Embarcados\Projeto Relógio\Código MPLAB\Projeto_Relogio\Relogio_digital_t
      +imer0.c"
  1777 ;; Parameters:    Size  Location     Type
  1778 ;;		None
  1779 ;; Auto vars:     Size  Location     Type
  1780 ;;  minutosSendo    2   10[BANK0 ] int 
  1781 ;; Return value:  Size  Location     Type
  1782 ;;                  1    wreg      void 
  1783 ;; Registers used:
  1784 ;;		wreg, status,2, status,0, pclath, cstack
  1785 ;; Tracked objects:
  1786 ;;		On entry : 0/0
  1787 ;;		On exit  : 0/0
  1788 ;;		Unchanged: 0/0
  1789 ;; Data sizes:     COMMON   BANK0   BANK1   BANK3   BANK2
  1790 ;;      Params:         0       0       0       0       0
  1791 ;;      Locals:         0       2       0       0       0
  1792 ;;      Temps:          0       1       0       0       0
  1793 ;;      Totals:         0       3       0       0       0
  1794 ;;Total ram usage:        3 bytes
  1795 ;; Hardware stack levels used:    1
  1796 ;; Hardware stack levels required when called:    3
  1797 ;; This function calls:
  1798 ;;		___awdiv
  1799 ;;		___awmod
  1800 ;; This function is called by:
  1801 ;;		_exibeHorarioPiscando
  1802 ;;		_exibeHorarioPiscandoAlarme
  1803 ;; This function uses a non-reentrant model
  1804 ;;
  1805                           
  1806                           
  1807                           ;psect for function _deveExibirMinutos
  1808  0765                     _deveExibirMinutos:	
  1809                           
  1810                           ;Relogio_digital_timer0.c: 497: int minutosSendoExibidos;
  1811                           ;Relogio_digital_timer0.c: 499: if (flagLadoParaEditar == 0 && flagEstadoPiscando == 1) 
      +                          {
  1812                           
  1813                           ;incstack = 0
  1814                           ; Regs used in _deveExibirMinutos: [wreg+status,2+status,0+pclath+cstack]
  1815  0765  1283               	bcf	3,5	;RP0=0, select bank0
  1816  0766  1303               	bcf	3,6	;RP1=0, select bank0
  1817  0767  0828               	movf	_flagLadoParaEditar,w
  1818  0768  0429               	iorwf	_flagLadoParaEditar+1,w
  1819  0769  1D03               	btfss	3,2
  1820  076A  2F78               	goto	l2466
  1821  076B  0326               	decf	_flagEstadoPiscando,w
  1822  076C  0427               	iorwf	_flagEstadoPiscando+1,w
  1823  076D  1D03               	btfss	3,2
  1824  076E  2F78               	goto	l2466
  1825                           
  1826                           ;Relogio_digital_timer0.c: 500: textoNaTela[3] = ' ';
  1827  076F  3020               	movlw	32
  1828  0770  00D0               	movwf	??_deveExibirMinutos
  1829  0771  0850               	movf	??_deveExibirMinutos,w
  1830  0772  00C1               	movwf	_textoNaTela+3
  1831                           
  1832                           ;Relogio_digital_timer0.c: 501: textoNaTela[4] = ' ';
  1833  0773  3020               	movlw	32
  1834  0774  00D0               	movwf	??_deveExibirMinutos
  1835  0775  0850               	movf	??_deveExibirMinutos,w
  1836  0776  00C2               	movwf	_textoNaTela+4
  1837                           
  1838                           ;Relogio_digital_timer0.c: 503: return;
  1839  0777  0008               	return
  1840  0778                     l2466:	
  1841                           
  1842                           ;Relogio_digital_timer0.c: 504: }
  1843                           ;Relogio_digital_timer0.c: 506: if (escolhaModo == alarme) {
  1844  0778  3003               	movlw	3
  1845  0779  0675               	xorwf	_escolhaModo,w
  1846  077A  0476               	iorwf	_escolhaModo+1,w
  1847  077B  1D03               	btfss	3,2
  1848  077C  2F81               	goto	l2470
  1849                           
  1850                           ;Relogio_digital_timer0.c: 507: minutosSendoExibidos = minutosAlarme;
  1851  077D  0835               	movf	_minutosAlarme+1,w
  1852  077E  00D2               	movwf	deveExibirMinutos@minutosSendoExibidos+1
  1853  077F  0834               	movf	_minutosAlarme,w
  1854  0780  2F84               	goto	L1
  1855  0781                     l2470:	
  1856                           ;Relogio_digital_timer0.c: 508: } else {
  1857                           
  1858                           
  1859                           ;Relogio_digital_timer0.c: 509: minutosSendoExibidos = minutos;
  1860  0781  083B               	movf	_minutos+1,w
  1861  0782  00D2               	movwf	deveExibirMinutos@minutosSendoExibidos+1
  1862  0783  083A               	movf	_minutos,w
  1863  0784                     L1:	
  1864  0784  00D1               	movwf	deveExibirMinutos@minutosSendoExibidos
  1865                           
  1866                           ;Relogio_digital_timer0.c: 510: }
  1867                           ;Relogio_digital_timer0.c: 512: textoNaTela[3] = minutosSendoExibidos/10 + '0';
  1868  0785  300A               	movlw	10
  1869  0786  00C7               	movwf	___awdiv@divisor
  1870  0787  3000               	movlw	0
  1871  0788  00C8               	movwf	___awdiv@divisor+1
  1872  0789  0852               	movf	deveExibirMinutos@minutosSendoExibidos+1,w
  1873  078A  00CA               	movwf	___awdiv@dividend+1
  1874  078B  0851               	movf	deveExibirMinutos@minutosSendoExibidos,w
  1875  078C  00C9               	movwf	___awdiv@dividend
  1876  078D  120A  118A  261D  120A  118A  	fcall	___awdiv
  1877  0792  1283               	bcf	3,5	;RP0=0, select bank0
  1878  0793  1303               	bcf	3,6	;RP1=0, select bank0
  1879  0794  0847               	movf	?___awdiv,w
  1880  0795  3E30               	addlw	48
  1881  0796  00D0               	movwf	??_deveExibirMinutos
  1882  0797  0850               	movf	??_deveExibirMinutos,w
  1883  0798  00C1               	movwf	_textoNaTela+3
  1884                           
  1885                           ;Relogio_digital_timer0.c: 513: textoNaTela[4] = minutosSendoExibidos%10 + '0';
  1886  0799  300A               	movlw	10
  1887  079A  00C7               	movwf	___awmod@divisor
  1888  079B  3000               	movlw	0
  1889  079C  00C8               	movwf	___awmod@divisor+1
  1890  079D  0852               	movf	deveExibirMinutos@minutosSendoExibidos+1,w
  1891  079E  00CA               	movwf	___awmod@dividend+1
  1892  079F  0851               	movf	deveExibirMinutos@minutosSendoExibidos,w
  1893  07A0  00C9               	movwf	___awmod@dividend
  1894  07A1  120A  118A  26CF   	fcall	___awmod
  1895  07A4  1283               	bcf	3,5	;RP0=0, select bank0
  1896  07A5  1303               	bcf	3,6	;RP1=0, select bank0
  1897  07A6  0847               	movf	?___awmod,w
  1898  07A7  3E30               	addlw	48
  1899  07A8  00D0               	movwf	??_deveExibirMinutos
  1900  07A9  0850               	movf	??_deveExibirMinutos,w
  1901  07AA  00C2               	movwf	_textoNaTela+4
  1902  07AB  0008               	return
  1903  07AC                     __end_of_deveExibirMinutos:	
  1904                           
  1905                           	psect	text8
  1906  07AC                     __ptext8:	
  1907 ;; *************** function _deveExibirHoras *****************
  1908 ;; Defined at:
  1909 ;;		line 474 in file "E:\Google Drive\Sistemas Embarcados\Projeto Relógio\Código MPLAB\Projeto_Relogio\Relogio_digital_t
      +imer0.c"
  1910 ;; Parameters:    Size  Location     Type
  1911 ;;		None
  1912 ;; Auto vars:     Size  Location     Type
  1913 ;;  horasSendoEx    2   10[BANK0 ] int 
  1914 ;; Return value:  Size  Location     Type
  1915 ;;                  1    wreg      void 
  1916 ;; Registers used:
  1917 ;;		wreg, status,2, status,0, pclath, cstack
  1918 ;; Tracked objects:
  1919 ;;		On entry : 0/0
  1920 ;;		On exit  : 0/0
  1921 ;;		Unchanged: 0/0
  1922 ;; Data sizes:     COMMON   BANK0   BANK1   BANK3   BANK2
  1923 ;;      Params:         0       0       0       0       0
  1924 ;;      Locals:         0       2       0       0       0
  1925 ;;      Temps:          0       1       0       0       0
  1926 ;;      Totals:         0       3       0       0       0
  1927 ;;Total ram usage:        3 bytes
  1928 ;; Hardware stack levels used:    1
  1929 ;; Hardware stack levels required when called:    3
  1930 ;; This function calls:
  1931 ;;		___awdiv
  1932 ;;		___awmod
  1933 ;; This function is called by:
  1934 ;;		_exibeHorarioPiscando
  1935 ;;		_exibeHorarioPiscandoAlarme
  1936 ;; This function uses a non-reentrant model
  1937 ;;
  1938                           
  1939                           
  1940                           ;psect for function _deveExibirHoras
  1941  07AC                     _deveExibirHoras:	
  1942                           
  1943                           ;Relogio_digital_timer0.c: 476: int horasSendoExibidas;
  1944                           ;Relogio_digital_timer0.c: 478: if (flagLadoParaEditar == 1 && flagEstadoPiscando == 1) 
      +                          {
  1945                           
  1946                           ;incstack = 0
  1947                           ; Regs used in _deveExibirHoras: [wreg+status,2+status,0+pclath+cstack]
  1948  07AC  1283               	bcf	3,5	;RP0=0, select bank0
  1949  07AD  1303               	bcf	3,6	;RP1=0, select bank0
  1950  07AE  0328               	decf	_flagLadoParaEditar,w
  1951  07AF  0429               	iorwf	_flagLadoParaEditar+1,w
  1952  07B0  1D03               	btfss	3,2
  1953  07B1  2FBF               	goto	l2448
  1954  07B2  0326               	decf	_flagEstadoPiscando,w
  1955  07B3  0427               	iorwf	_flagEstadoPiscando+1,w
  1956  07B4  1D03               	btfss	3,2
  1957  07B5  2FBF               	goto	l2448
  1958                           
  1959                           ;Relogio_digital_timer0.c: 479: textoNaTela[0] = ' ';
  1960  07B6  3020               	movlw	32
  1961  07B7  00D0               	movwf	??_deveExibirHoras
  1962  07B8  0850               	movf	??_deveExibirHoras,w
  1963  07B9  00BE               	movwf	_textoNaTela
  1964                           
  1965                           ;Relogio_digital_timer0.c: 480: textoNaTela[1] = ' ';
  1966  07BA  3020               	movlw	32
  1967  07BB  00D0               	movwf	??_deveExibirHoras
  1968  07BC  0850               	movf	??_deveExibirHoras,w
  1969  07BD  00BF               	movwf	_textoNaTela+1
  1970                           
  1971                           ;Relogio_digital_timer0.c: 482: return;
  1972  07BE  0008               	return
  1973  07BF                     l2448:	
  1974                           
  1975                           ;Relogio_digital_timer0.c: 483: }
  1976                           ;Relogio_digital_timer0.c: 485: if (escolhaModo == alarme) {
  1977  07BF  3003               	movlw	3
  1978  07C0  0675               	xorwf	_escolhaModo,w
  1979  07C1  0476               	iorwf	_escolhaModo+1,w
  1980  07C2  1D03               	btfss	3,2
  1981  07C3  2FC8               	goto	l2452
  1982                           
  1983                           ;Relogio_digital_timer0.c: 486: horasSendoExibidas = horasAlarme;
  1984  07C4  0833               	movf	_horasAlarme+1,w
  1985  07C5  00D2               	movwf	deveExibirHoras@horasSendoExibidas+1
  1986  07C6  0832               	movf	_horasAlarme,w
  1987  07C7  2FCB               	goto	L2
  1988  07C8                     l2452:	
  1989                           ;Relogio_digital_timer0.c: 487: } else {
  1990                           
  1991                           
  1992                           ;Relogio_digital_timer0.c: 488: horasSendoExibidas = horas;
  1993  07C8  0839               	movf	_horas+1,w
  1994  07C9  00D2               	movwf	deveExibirHoras@horasSendoExibidas+1
  1995  07CA  0838               	movf	_horas,w
  1996  07CB                     L2:	
  1997  07CB  00D1               	movwf	deveExibirHoras@horasSendoExibidas
  1998                           
  1999                           ;Relogio_digital_timer0.c: 489: }
  2000                           ;Relogio_digital_timer0.c: 491: textoNaTela[0] = horasSendoExibidas/10 + '0';
  2001  07CC  300A               	movlw	10
  2002  07CD  00C7               	movwf	___awdiv@divisor
  2003  07CE  3000               	movlw	0
  2004  07CF  00C8               	movwf	___awdiv@divisor+1
  2005  07D0  0852               	movf	deveExibirHoras@horasSendoExibidas+1,w
  2006  07D1  00CA               	movwf	___awdiv@dividend+1
  2007  07D2  0851               	movf	deveExibirHoras@horasSendoExibidas,w
  2008  07D3  00C9               	movwf	___awdiv@dividend
  2009  07D4  120A  118A  261D  120A  118A  	fcall	___awdiv
  2010  07D9  1283               	bcf	3,5	;RP0=0, select bank0
  2011  07DA  1303               	bcf	3,6	;RP1=0, select bank0
  2012  07DB  0847               	movf	?___awdiv,w
  2013  07DC  3E30               	addlw	48
  2014  07DD  00D0               	movwf	??_deveExibirHoras
  2015  07DE  0850               	movf	??_deveExibirHoras,w
  2016  07DF  00BE               	movwf	_textoNaTela
  2017                           
  2018                           ;Relogio_digital_timer0.c: 492: textoNaTela[1] = horasSendoExibidas%10 + '0';
  2019  07E0  300A               	movlw	10
  2020  07E1  00C7               	movwf	___awmod@divisor
  2021  07E2  3000               	movlw	0
  2022  07E3  00C8               	movwf	___awmod@divisor+1
  2023  07E4  0852               	movf	deveExibirHoras@horasSendoExibidas+1,w
  2024  07E5  00CA               	movwf	___awmod@dividend+1
  2025  07E6  0851               	movf	deveExibirHoras@horasSendoExibidas,w
  2026  07E7  00C9               	movwf	___awmod@dividend
  2027  07E8  120A  118A  26CF   	fcall	___awmod
  2028  07EB  1283               	bcf	3,5	;RP0=0, select bank0
  2029  07EC  1303               	bcf	3,6	;RP1=0, select bank0
  2030  07ED  0847               	movf	?___awmod,w
  2031  07EE  3E30               	addlw	48
  2032  07EF  00D0               	movwf	??_deveExibirHoras
  2033  07F0  0850               	movf	??_deveExibirHoras,w
  2034  07F1  00BF               	movwf	_textoNaTela+1
  2035  07F2  0008               	return
  2036  07F3                     __end_of_deveExibirHoras:	
  2037                           
  2038                           	psect	text9
  2039  0498                     __ptext9:	
  2040 ;; *************** function _exibeHorarioNormalmente *****************
  2041 ;; Defined at:
  2042 ;;		line 600 in file "E:\Google Drive\Sistemas Embarcados\Projeto Relógio\Código MPLAB\Projeto_Relogio\Relogio_digital_t
      +imer0.c"
  2043 ;; Parameters:    Size  Location     Type
  2044 ;;		None
  2045 ;; Auto vars:     Size  Location     Type
  2046 ;;		None
  2047 ;; Return value:  Size  Location     Type
  2048 ;;                  1    wreg      void 
  2049 ;; Registers used:
  2050 ;;		wreg, fsr0l, fsr0h, status,2, status,0, btemp+1, pclath, cstack
  2051 ;; Tracked objects:
  2052 ;;		On entry : 0/0
  2053 ;;		On exit  : 0/0
  2054 ;;		Unchanged: 0/0
  2055 ;; Data sizes:     COMMON   BANK0   BANK1   BANK3   BANK2
  2056 ;;      Params:         0       0       0       0       0
  2057 ;;      Locals:         0       0       0       0       0
  2058 ;;      Temps:          0       1       0       0       0
  2059 ;;      Totals:         0       1       0       0       0
  2060 ;;Total ram usage:        1 bytes
  2061 ;; Hardware stack levels used:    1
  2062 ;; Hardware stack levels required when called:    4
  2063 ;; This function calls:
  2064 ;;		_LCD_Cursor
  2065 ;;		_LCD_WriteString
  2066 ;;		___awdiv
  2067 ;;		___awmod
  2068 ;; This function is called by:
  2069 ;;		_exibeTela
  2070 ;; This function uses a non-reentrant model
  2071 ;;
  2072                           
  2073                           
  2074                           ;psect for function _exibeHorarioNormalmente
  2075  0498                     _exibeHorarioNormalmente:	
  2076                           
  2077                           ;Relogio_digital_timer0.c: 602: textoNaTela[0] = horas/10 + '0';
  2078                           
  2079                           ;incstack = 0
  2080                           ; Regs used in _exibeHorarioNormalmente: [wreg-fsr0h+status,2+status,0+btemp+1+pclath+cs
      +                          tack]
  2081  0498  300A               	movlw	10
  2082  0499  1283               	bcf	3,5	;RP0=0, select bank0
  2083  049A  1303               	bcf	3,6	;RP1=0, select bank0
  2084  049B  00C7               	movwf	___awdiv@divisor
  2085  049C  3000               	movlw	0
  2086  049D  00C8               	movwf	___awdiv@divisor+1
  2087  049E  0839               	movf	_horas+1,w
  2088  049F  00CA               	movwf	___awdiv@dividend+1
  2089  04A0  0838               	movf	_horas,w
  2090  04A1  00C9               	movwf	___awdiv@dividend
  2091  04A2  120A  118A  261D  120A  118A  	fcall	___awdiv
  2092  04A7  1283               	bcf	3,5	;RP0=0, select bank0
  2093  04A8  1303               	bcf	3,6	;RP1=0, select bank0
  2094  04A9  0847               	movf	?___awdiv,w
  2095  04AA  3E30               	addlw	48
  2096  04AB  00D0               	movwf	??_exibeHorarioNormalmente
  2097  04AC  0850               	movf	??_exibeHorarioNormalmente,w
  2098  04AD  00BE               	movwf	_textoNaTela
  2099                           
  2100                           ;Relogio_digital_timer0.c: 603: textoNaTela[1] = horas%10 + '0';
  2101  04AE  300A               	movlw	10
  2102  04AF  00C7               	movwf	___awmod@divisor
  2103  04B0  3000               	movlw	0
  2104  04B1  00C8               	movwf	___awmod@divisor+1
  2105  04B2  0839               	movf	_horas+1,w
  2106  04B3  00CA               	movwf	___awmod@dividend+1
  2107  04B4  0838               	movf	_horas,w
  2108  04B5  00C9               	movwf	___awmod@dividend
  2109  04B6  120A  118A  26CF  120A  118A  	fcall	___awmod
  2110  04BB  1283               	bcf	3,5	;RP0=0, select bank0
  2111  04BC  1303               	bcf	3,6	;RP1=0, select bank0
  2112  04BD  0847               	movf	?___awmod,w
  2113  04BE  3E30               	addlw	48
  2114  04BF  00D0               	movwf	??_exibeHorarioNormalmente
  2115  04C0  0850               	movf	??_exibeHorarioNormalmente,w
  2116  04C1  00BF               	movwf	_textoNaTela+1
  2117                           
  2118                           ;Relogio_digital_timer0.c: 604: textoNaTela[2] = ':';
  2119  04C2  303A               	movlw	58
  2120  04C3  00D0               	movwf	??_exibeHorarioNormalmente
  2121  04C4  0850               	movf	??_exibeHorarioNormalmente,w
  2122  04C5  00C0               	movwf	_textoNaTela+2
  2123                           
  2124                           ;Relogio_digital_timer0.c: 605: textoNaTela[3] = minutos/10 + '0';
  2125  04C6  300A               	movlw	10
  2126  04C7  00C7               	movwf	___awdiv@divisor
  2127  04C8  3000               	movlw	0
  2128  04C9  00C8               	movwf	___awdiv@divisor+1
  2129  04CA  083B               	movf	_minutos+1,w
  2130  04CB  00CA               	movwf	___awdiv@dividend+1
  2131  04CC  083A               	movf	_minutos,w
  2132  04CD  00C9               	movwf	___awdiv@dividend
  2133  04CE  120A  118A  261D  120A  118A  	fcall	___awdiv
  2134  04D3  1283               	bcf	3,5	;RP0=0, select bank0
  2135  04D4  1303               	bcf	3,6	;RP1=0, select bank0
  2136  04D5  0847               	movf	?___awdiv,w
  2137  04D6  3E30               	addlw	48
  2138  04D7  00D0               	movwf	??_exibeHorarioNormalmente
  2139  04D8  0850               	movf	??_exibeHorarioNormalmente,w
  2140  04D9  00C1               	movwf	_textoNaTela+3
  2141                           
  2142                           ;Relogio_digital_timer0.c: 606: textoNaTela[4] = minutos%10 + '0';
  2143  04DA  300A               	movlw	10
  2144  04DB  00C7               	movwf	___awmod@divisor
  2145  04DC  3000               	movlw	0
  2146  04DD  00C8               	movwf	___awmod@divisor+1
  2147  04DE  083B               	movf	_minutos+1,w
  2148  04DF  00CA               	movwf	___awmod@dividend+1
  2149  04E0  083A               	movf	_minutos,w
  2150  04E1  00C9               	movwf	___awmod@dividend
  2151  04E2  120A  118A  26CF  120A  118A  	fcall	___awmod
  2152  04E7  1283               	bcf	3,5	;RP0=0, select bank0
  2153  04E8  1303               	bcf	3,6	;RP1=0, select bank0
  2154  04E9  0847               	movf	?___awmod,w
  2155  04EA  3E30               	addlw	48
  2156  04EB  00D0               	movwf	??_exibeHorarioNormalmente
  2157  04EC  0850               	movf	??_exibeHorarioNormalmente,w
  2158  04ED  00C2               	movwf	_textoNaTela+4
  2159                           
  2160                           ;Relogio_digital_timer0.c: 607: textoNaTela[5] = ':';
  2161  04EE  303A               	movlw	58
  2162  04EF  00D0               	movwf	??_exibeHorarioNormalmente
  2163  04F0  0850               	movf	??_exibeHorarioNormalmente,w
  2164  04F1  00C3               	movwf	_textoNaTela+5
  2165                           
  2166                           ;Relogio_digital_timer0.c: 608: textoNaTela[6] = segundos/10 + '0';
  2167  04F2  300A               	movlw	10
  2168  04F3  00C7               	movwf	___awdiv@divisor
  2169  04F4  3000               	movlw	0
  2170  04F5  00C8               	movwf	___awdiv@divisor+1
  2171  04F6  083D               	movf	_segundos+1,w
  2172  04F7  00CA               	movwf	___awdiv@dividend+1
  2173  04F8  083C               	movf	_segundos,w
  2174  04F9  00C9               	movwf	___awdiv@dividend
  2175  04FA  120A  118A  261D  120A  118A  	fcall	___awdiv
  2176  04FF  1283               	bcf	3,5	;RP0=0, select bank0
  2177  0500  1303               	bcf	3,6	;RP1=0, select bank0
  2178  0501  0847               	movf	?___awdiv,w
  2179  0502  3E30               	addlw	48
  2180  0503  00D0               	movwf	??_exibeHorarioNormalmente
  2181  0504  0850               	movf	??_exibeHorarioNormalmente,w
  2182  0505  00C4               	movwf	_textoNaTela+6
  2183                           
  2184                           ;Relogio_digital_timer0.c: 609: textoNaTela[7] = segundos%10 + '0';
  2185  0506  300A               	movlw	10
  2186  0507  00C7               	movwf	___awmod@divisor
  2187  0508  3000               	movlw	0
  2188  0509  00C8               	movwf	___awmod@divisor+1
  2189  050A  083D               	movf	_segundos+1,w
  2190  050B  00CA               	movwf	___awmod@dividend+1
  2191  050C  083C               	movf	_segundos,w
  2192  050D  00C9               	movwf	___awmod@dividend
  2193  050E  120A  118A  26CF  120A  118A  	fcall	___awmod
  2194  0513  1283               	bcf	3,5	;RP0=0, select bank0
  2195  0514  1303               	bcf	3,6	;RP1=0, select bank0
  2196  0515  0847               	movf	?___awmod,w
  2197  0516  3E30               	addlw	48
  2198  0517  00D0               	movwf	??_exibeHorarioNormalmente
  2199  0518  0850               	movf	??_exibeHorarioNormalmente,w
  2200  0519  00C5               	movwf	_textoNaTela+7
  2201                           
  2202                           ;Relogio_digital_timer0.c: 610: textoNaTela[8] = '\0';
  2203  051A  01C6               	clrf	_textoNaTela+8
  2204                           
  2205                           ;Relogio_digital_timer0.c: 612: LCD_Cursor(0,0);
  2206  051B  01C7               	clrf	LCD_Cursor@Col
  2207  051C  3000               	movlw	0
  2208  051D  120A  158A  2671  120A  118A  	fcall	_LCD_Cursor
  2209                           
  2210                           ;Relogio_digital_timer0.c: 613: LCD_WriteString(textoNaTela);
  2211  0522  303E               	movlw	(low (_textoNaTela| 0))& (0+255)
  2212  0523  1283               	bcf	3,5	;RP0=0, select bank0
  2213  0524  1303               	bcf	3,6	;RP1=0, select bank0
  2214  0525  00C9               	movwf	LCD_WriteString@Str
  2215  0526  3000               	movlw	0
  2216  0527  00CA               	movwf	LCD_WriteString@Str+1
  2217  0528  120A  158A  2700   	fcall	_LCD_WriteString
  2218  052B  0008               	return
  2219  052C                     __end_of_exibeHorarioNormalmente:	
  2220                           
  2221                           	psect	text10
  2222  06CF                     __ptext10:	
  2223 ;; *************** function ___awmod *****************
  2224 ;; Defined at:
  2225 ;;		line 6 in file "C:\Program Files (x86)\Microchip\xc8\v1.44\sources\common\awmod.c"
  2226 ;; Parameters:    Size  Location     Type
  2227 ;;  divisor         2    0[BANK0 ] int 
  2228 ;;  dividend        2    2[BANK0 ] int 
  2229 ;; Auto vars:     Size  Location     Type
  2230 ;;  sign            1    6[BANK0 ] unsigned char 
  2231 ;;  counter         1    5[BANK0 ] unsigned char 
  2232 ;; Return value:  Size  Location     Type
  2233 ;;                  2    0[BANK0 ] int 
  2234 ;; Registers used:
  2235 ;;		wreg, status,2, status,0
  2236 ;; Tracked objects:
  2237 ;;		On entry : 0/0
  2238 ;;		On exit  : 0/0
  2239 ;;		Unchanged: 0/0
  2240 ;; Data sizes:     COMMON   BANK0   BANK1   BANK3   BANK2
  2241 ;;      Params:         0       4       0       0       0
  2242 ;;      Locals:         0       2       0       0       0
  2243 ;;      Temps:          0       1       0       0       0
  2244 ;;      Totals:         0       7       0       0       0
  2245 ;;Total ram usage:        7 bytes
  2246 ;; Hardware stack levels used:    1
  2247 ;; Hardware stack levels required when called:    2
  2248 ;; This function calls:
  2249 ;;		Nothing
  2250 ;; This function is called by:
  2251 ;;		_deveExibirHoras
  2252 ;;		_deveExibirMinutos
  2253 ;;		_deveExibirSegundos
  2254 ;;		_exibeHorarioNormalmente
  2255 ;; This function uses a non-reentrant model
  2256 ;;
  2257                           
  2258                           
  2259                           ;psect for function ___awmod
  2260  06CF                     ___awmod:	
  2261                           
  2262                           ;incstack = 0
  2263                           ; Regs used in ___awmod: [wreg+status,2+status,0]
  2264  06CF  1283               	bcf	3,5	;RP0=0, select bank0
  2265  06D0  1303               	bcf	3,6	;RP1=0, select bank0
  2266  06D1  01CD               	clrf	___awmod@sign
  2267  06D2  1FCA               	btfss	___awmod@dividend+1,7
  2268  06D3  2EDB               	goto	l2380
  2269  06D4  09C9               	comf	___awmod@dividend,f
  2270  06D5  09CA               	comf	___awmod@dividend+1,f
  2271  06D6  0AC9               	incf	___awmod@dividend,f
  2272  06D7  1903               	skipnz
  2273  06D8  0ACA               	incf	___awmod@dividend+1,f
  2274  06D9  01CD               	clrf	___awmod@sign
  2275  06DA  0ACD               	incf	___awmod@sign,f
  2276  06DB                     l2380:	
  2277  06DB  1FC8               	btfss	___awmod@divisor+1,7
  2278  06DC  2EE2               	goto	l2384
  2279  06DD  09C7               	comf	___awmod@divisor,f
  2280  06DE  09C8               	comf	___awmod@divisor+1,f
  2281  06DF  0AC7               	incf	___awmod@divisor,f
  2282  06E0  1903               	skipnz
  2283  06E1  0AC8               	incf	___awmod@divisor+1,f
  2284  06E2                     l2384:	
  2285  06E2  0847               	movf	___awmod@divisor,w
  2286  06E3  0448               	iorwf	___awmod@divisor+1,w
  2287  06E4  1903               	btfsc	3,2
  2288  06E5  2F0F               	goto	l2402
  2289  06E6  01CC               	clrf	___awmod@counter
  2290  06E7  0ACC               	incf	___awmod@counter,f
  2291  06E8                     l2392:	
  2292  06E8  1BC8               	btfsc	___awmod@divisor+1,7
  2293  06E9  2EF6               	goto	l2394
  2294  06EA  3001               	movlw	1
  2295  06EB                     u2625:	
  2296  06EB  1003               	clrc
  2297  06EC  0DC7               	rlf	___awmod@divisor,f
  2298  06ED  0DC8               	rlf	___awmod@divisor+1,f
  2299  06EE  3EFF               	addlw	-1
  2300  06EF  1D03               	skipz
  2301  06F0  2EEB               	goto	u2625
  2302  06F1  3001               	movlw	1
  2303  06F2  00CB               	movwf	??___awmod
  2304  06F3  084B               	movf	??___awmod,w
  2305  06F4  07CC               	addwf	___awmod@counter,f
  2306  06F5  2EE8               	goto	l2392
  2307  06F6                     l2394:	
  2308  06F6  0848               	movf	___awmod@divisor+1,w
  2309  06F7  024A               	subwf	___awmod@dividend+1,w
  2310  06F8  1D03               	skipz
  2311  06F9  2EFC               	goto	u2645
  2312  06FA  0847               	movf	___awmod@divisor,w
  2313  06FB  0249               	subwf	___awmod@dividend,w
  2314  06FC                     u2645:	
  2315  06FC  1C03               	skipc
  2316  06FD  2F04               	goto	l2398
  2317  06FE  0847               	movf	___awmod@divisor,w
  2318  06FF  02C9               	subwf	___awmod@dividend,f
  2319  0700  0848               	movf	___awmod@divisor+1,w
  2320  0701  1C03               	skipc
  2321  0702  03CA               	decf	___awmod@dividend+1,f
  2322  0703  02CA               	subwf	___awmod@dividend+1,f
  2323  0704                     l2398:	
  2324  0704  3001               	movlw	1
  2325  0705                     u2655:	
  2326  0705  1003               	clrc
  2327  0706  0CC8               	rrf	___awmod@divisor+1,f
  2328  0707  0CC7               	rrf	___awmod@divisor,f
  2329  0708  3EFF               	addlw	-1
  2330  0709  1D03               	skipz
  2331  070A  2F05               	goto	u2655
  2332  070B  3001               	movlw	1
  2333  070C  02CC               	subwf	___awmod@counter,f
  2334  070D  1D03               	btfss	3,2
  2335  070E  2EF6               	goto	l2394
  2336  070F                     l2402:	
  2337  070F  084D               	movf	___awmod@sign,w
  2338  0710  1903               	btfsc	3,2
  2339  0711  2F17               	goto	l2406
  2340  0712  09C9               	comf	___awmod@dividend,f
  2341  0713  09CA               	comf	___awmod@dividend+1,f
  2342  0714  0AC9               	incf	___awmod@dividend,f
  2343  0715  1903               	skipnz
  2344  0716  0ACA               	incf	___awmod@dividend+1,f
  2345  0717                     l2406:	
  2346  0717  084A               	movf	___awmod@dividend+1,w
  2347  0718  00C8               	movwf	?___awmod+1
  2348  0719  0849               	movf	___awmod@dividend,w
  2349  071A  00C7               	movwf	?___awmod
  2350  071B  0008               	return
  2351  071C                     __end_of___awmod:	
  2352                           
  2353                           	psect	text11
  2354  061D                     __ptext11:	
  2355 ;; *************** function ___awdiv *****************
  2356 ;; Defined at:
  2357 ;;		line 6 in file "C:\Program Files (x86)\Microchip\xc8\v1.44\sources\common\awdiv.c"
  2358 ;; Parameters:    Size  Location     Type
  2359 ;;  divisor         2    0[BANK0 ] int 
  2360 ;;  dividend        2    2[BANK0 ] int 
  2361 ;; Auto vars:     Size  Location     Type
  2362 ;;  quotient        2    7[BANK0 ] int 
  2363 ;;  sign            1    6[BANK0 ] unsigned char 
  2364 ;;  counter         1    5[BANK0 ] unsigned char 
  2365 ;; Return value:  Size  Location     Type
  2366 ;;                  2    0[BANK0 ] int 
  2367 ;; Registers used:
  2368 ;;		wreg, status,2, status,0
  2369 ;; Tracked objects:
  2370 ;;		On entry : 0/0
  2371 ;;		On exit  : 0/0
  2372 ;;		Unchanged: 0/0
  2373 ;; Data sizes:     COMMON   BANK0   BANK1   BANK3   BANK2
  2374 ;;      Params:         0       4       0       0       0
  2375 ;;      Locals:         0       4       0       0       0
  2376 ;;      Temps:          0       1       0       0       0
  2377 ;;      Totals:         0       9       0       0       0
  2378 ;;Total ram usage:        9 bytes
  2379 ;; Hardware stack levels used:    1
  2380 ;; Hardware stack levels required when called:    2
  2381 ;; This function calls:
  2382 ;;		Nothing
  2383 ;; This function is called by:
  2384 ;;		_deveExibirHoras
  2385 ;;		_deveExibirMinutos
  2386 ;;		_deveExibirSegundos
  2387 ;;		_exibeHorarioNormalmente
  2388 ;; This function uses a non-reentrant model
  2389 ;;
  2390                           
  2391                           
  2392                           ;psect for function ___awdiv
  2393  061D                     ___awdiv:	
  2394                           
  2395                           ;incstack = 0
  2396                           ; Regs used in ___awdiv: [wreg+status,2+status,0]
  2397  061D  1283               	bcf	3,5	;RP0=0, select bank0
  2398  061E  1303               	bcf	3,6	;RP1=0, select bank0
  2399  061F  01CD               	clrf	___awdiv@sign
  2400  0620  1FC8               	btfss	___awdiv@divisor+1,7
  2401  0621  2E29               	goto	l2336
  2402  0622  09C7               	comf	___awdiv@divisor,f
  2403  0623  09C8               	comf	___awdiv@divisor+1,f
  2404  0624  0AC7               	incf	___awdiv@divisor,f
  2405  0625  1903               	skipnz
  2406  0626  0AC8               	incf	___awdiv@divisor+1,f
  2407  0627  01CD               	clrf	___awdiv@sign
  2408  0628  0ACD               	incf	___awdiv@sign,f
  2409  0629                     l2336:	
  2410  0629  1FCA               	btfss	___awdiv@dividend+1,7
  2411  062A  2E34               	goto	l2342
  2412  062B  09C9               	comf	___awdiv@dividend,f
  2413  062C  09CA               	comf	___awdiv@dividend+1,f
  2414  062D  0AC9               	incf	___awdiv@dividend,f
  2415  062E  1903               	skipnz
  2416  062F  0ACA               	incf	___awdiv@dividend+1,f
  2417  0630  3001               	movlw	1
  2418  0631  00CB               	movwf	??___awdiv
  2419  0632  084B               	movf	??___awdiv,w
  2420  0633  06CD               	xorwf	___awdiv@sign,f
  2421  0634                     l2342:	
  2422  0634  01CE               	clrf	___awdiv@quotient
  2423  0635  01CF               	clrf	___awdiv@quotient+1
  2424  0636  0847               	movf	___awdiv@divisor,w
  2425  0637  0448               	iorwf	___awdiv@divisor+1,w
  2426  0638  1903               	btfsc	3,2
  2427  0639  2E6B               	goto	l2364
  2428  063A  01CC               	clrf	___awdiv@counter
  2429  063B  0ACC               	incf	___awdiv@counter,f
  2430  063C                     l2352:	
  2431  063C  1BC8               	btfsc	___awdiv@divisor+1,7
  2432  063D  2E4A               	goto	l2354
  2433  063E  3001               	movlw	1
  2434  063F                     u2525:	
  2435  063F  1003               	clrc
  2436  0640  0DC7               	rlf	___awdiv@divisor,f
  2437  0641  0DC8               	rlf	___awdiv@divisor+1,f
  2438  0642  3EFF               	addlw	-1
  2439  0643  1D03               	skipz
  2440  0644  2E3F               	goto	u2525
  2441  0645  3001               	movlw	1
  2442  0646  00CB               	movwf	??___awdiv
  2443  0647  084B               	movf	??___awdiv,w
  2444  0648  07CC               	addwf	___awdiv@counter,f
  2445  0649  2E3C               	goto	l2352
  2446  064A                     l2354:	
  2447  064A  3001               	movlw	1
  2448  064B                     u2545:	
  2449  064B  1003               	clrc
  2450  064C  0DCE               	rlf	___awdiv@quotient,f
  2451  064D  0DCF               	rlf	___awdiv@quotient+1,f
  2452  064E  3EFF               	addlw	-1
  2453  064F  1D03               	skipz
  2454  0650  2E4B               	goto	u2545
  2455  0651  0848               	movf	___awdiv@divisor+1,w
  2456  0652  024A               	subwf	___awdiv@dividend+1,w
  2457  0653  1D03               	skipz
  2458  0654  2E57               	goto	u2555
  2459  0655  0847               	movf	___awdiv@divisor,w
  2460  0656  0249               	subwf	___awdiv@dividend,w
  2461  0657                     u2555:	
  2462  0657  1C03               	skipc
  2463  0658  2E60               	goto	l2360
  2464  0659  0847               	movf	___awdiv@divisor,w
  2465  065A  02C9               	subwf	___awdiv@dividend,f
  2466  065B  0848               	movf	___awdiv@divisor+1,w
  2467  065C  1C03               	skipc
  2468  065D  03CA               	decf	___awdiv@dividend+1,f
  2469  065E  02CA               	subwf	___awdiv@dividend+1,f
  2470  065F  144E               	bsf	___awdiv@quotient,0
  2471  0660                     l2360:	
  2472  0660  3001               	movlw	1
  2473  0661                     u2565:	
  2474  0661  1003               	clrc
  2475  0662  0CC8               	rrf	___awdiv@divisor+1,f
  2476  0663  0CC7               	rrf	___awdiv@divisor,f
  2477  0664  3EFF               	addlw	-1
  2478  0665  1D03               	skipz
  2479  0666  2E61               	goto	u2565
  2480  0667  3001               	movlw	1
  2481  0668  02CC               	subwf	___awdiv@counter,f
  2482  0669  1D03               	btfss	3,2
  2483  066A  2E4A               	goto	l2354
  2484  066B                     l2364:	
  2485  066B  084D               	movf	___awdiv@sign,w
  2486  066C  1903               	btfsc	3,2
  2487  066D  2E73               	goto	l2368
  2488  066E  09CE               	comf	___awdiv@quotient,f
  2489  066F  09CF               	comf	___awdiv@quotient+1,f
  2490  0670  0ACE               	incf	___awdiv@quotient,f
  2491  0671  1903               	skipnz
  2492  0672  0ACF               	incf	___awdiv@quotient+1,f
  2493  0673                     l2368:	
  2494  0673  084F               	movf	___awdiv@quotient+1,w
  2495  0674  00C8               	movwf	?___awdiv+1
  2496  0675  084E               	movf	___awdiv@quotient,w
  2497  0676  00C7               	movwf	?___awdiv
  2498  0677  0008               	return
  2499  0678                     __end_of___awdiv:	
  2500                           
  2501                           	psect	text12
  2502  0F00                     __ptext12:	
  2503 ;; *************** function _LCD_WriteString *****************
  2504 ;; Defined at:
  2505 ;;		line 93 in file "E:\Google Drive\Sistemas Embarcados\Projeto Relógio\Código MPLAB\Projeto_Relogio\Relogio_digital_ti
      +mer0.c"
  2506 ;; Parameters:    Size  Location     Type
  2507 ;;  Str             2    2[BANK0 ] PTR const unsigned char 
  2508 ;;		 -> STR_11(17), STR_10(17), STR_9(17), STR_8(17), 
  2509 ;;		 -> STR_7(17), STR_6(17), STR_5(17), STR_4(17), 
  2510 ;;		 -> STR_3(17), STR_2(17), STR_1(17), textoNaTela(9), 
  2511 ;; Auto vars:     Size  Location     Type
  2512 ;;		None
  2513 ;; Return value:  Size  Location     Type
  2514 ;;                  1    wreg      void 
  2515 ;; Registers used:
  2516 ;;		wreg, fsr0l, fsr0h, status,2, status,0, btemp+1, pclath, cstack
  2517 ;; Tracked objects:
  2518 ;;		On entry : 0/0
  2519 ;;		On exit  : 0/0
  2520 ;;		Unchanged: 0/0
  2521 ;; Data sizes:     COMMON   BANK0   BANK1   BANK3   BANK2
  2522 ;;      Params:         0       2       0       0       0
  2523 ;;      Locals:         0       0       0       0       0
  2524 ;;      Temps:          0       0       0       0       0
  2525 ;;      Totals:         0       2       0       0       0
  2526 ;;Total ram usage:        2 bytes
  2527 ;; Hardware stack levels used:    1
  2528 ;; Hardware stack levels required when called:    3
  2529 ;; This function calls:
  2530 ;;		_LCD_WriteData
  2531 ;; This function is called by:
  2532 ;;		_exibeHorarioPiscando
  2533 ;;		_exibeHorarioPiscandoAlarme
  2534 ;;		_opcoesDeExibicaoHorario
  2535 ;;		_mostraMenuOpcoes
  2536 ;;		_exibeHorarioNormalmente
  2537 ;; This function uses a non-reentrant model
  2538 ;;
  2539                           
  2540                           
  2541                           ;psect for function _LCD_WriteString
  2542  0F00                     _LCD_WriteString:	
  2543  0F00                     l2438:	
  2544                           ;Relogio_digital_timer0.c: 95: while(*Str != '\0')
  2545                           
  2546                           ;incstack = 0
  2547                           ; Regs used in _LCD_WriteString: [wreg-fsr0h+status,2+status,0+btemp+1+pclath+cstack]
  2548                           
  2549  0F00  1283               	bcf	3,5	;RP0=0, select bank0
  2550  0F01  1303               	bcf	3,6	;RP1=0, select bank0
  2551  0F02  084A               	movf	LCD_WriteString@Str+1,w
  2552  0F03  00FF               	movwf	127
  2553  0F04  0849               	movf	LCD_WriteString@Str,w
  2554  0F05  0084               	movwf	4
  2555  0F06  120A  118A  2400  120A  158A  	fcall	stringtab
  2556  0F0B  3A00               	xorlw	0
  2557  0F0C  1903               	btfsc	3,2
  2558  0F0D  0008               	return
  2559                           
  2560                           ;Relogio_digital_timer0.c: 96: {
  2561                           ;Relogio_digital_timer0.c: 97: LCD_WriteData(*Str);
  2562  0F0E  1283               	bcf	3,5	;RP0=0, select bank0
  2563  0F0F  1303               	bcf	3,6	;RP1=0, select bank0
  2564  0F10  084A               	movf	LCD_WriteString@Str+1,w
  2565  0F11  00FF               	movwf	127
  2566  0F12  0849               	movf	LCD_WriteString@Str,w
  2567  0F13  0084               	movwf	4
  2568  0F14  120A  118A  2400  120A  158A  	fcall	stringtab
  2569  0F19  120A  118A  23E9  120A  158A  	fcall	_LCD_WriteData
  2570                           
  2571                           ;Relogio_digital_timer0.c: 98: Str++;
  2572  0F1E  3001               	movlw	1
  2573  0F1F  1283               	bcf	3,5	;RP0=0, select bank0
  2574  0F20  1303               	bcf	3,6	;RP1=0, select bank0
  2575  0F21  07C9               	addwf	LCD_WriteString@Str,f
  2576  0F22  1803               	skipnc
  2577  0F23  0ACA               	incf	LCD_WriteString@Str+1,f
  2578  0F24  2F00               	goto	l2438
  2579  0F25                     __end_of_LCD_WriteString:	
  2580                           
  2581                           	psect	text13
  2582  03E9                     __ptext13:	
  2583 ;; *************** function _LCD_WriteData *****************
  2584 ;; Defined at:
  2585 ;;		line 79 in file "E:\Google Drive\Sistemas Embarcados\Projeto Relógio\Código MPLAB\Projeto_Relogio\Relogio_digital_ti
      +mer0.c"
  2586 ;; Parameters:    Size  Location     Type
  2587 ;;  Byte            1    wreg     unsigned char 
  2588 ;; Auto vars:     Size  Location     Type
  2589 ;;  Byte            1    1[BANK0 ] unsigned char 
  2590 ;; Return value:  Size  Location     Type
  2591 ;;                  1    wreg      void 
  2592 ;; Registers used:
  2593 ;;		wreg
  2594 ;; Tracked objects:
  2595 ;;		On entry : 0/0
  2596 ;;		On exit  : 0/0
  2597 ;;		Unchanged: 0/0
  2598 ;; Data sizes:     COMMON   BANK0   BANK1   BANK3   BANK2
  2599 ;;      Params:         0       0       0       0       0
  2600 ;;      Locals:         0       1       0       0       0
  2601 ;;      Temps:          0       1       0       0       0
  2602 ;;      Totals:         0       2       0       0       0
  2603 ;;Total ram usage:        2 bytes
  2604 ;; Hardware stack levels used:    1
  2605 ;; Hardware stack levels required when called:    2
  2606 ;; This function calls:
  2607 ;;		Nothing
  2608 ;; This function is called by:
  2609 ;;		_LCD_WriteString
  2610 ;; This function uses a non-reentrant model
  2611 ;;
  2612                           
  2613                           
  2614                           ;psect for function _LCD_WriteData
  2615  03E9                     _LCD_WriteData:	
  2616                           
  2617                           ;incstack = 0
  2618                           ; Regs used in _LCD_WriteData: [wreg]
  2619                           ;LCD_WriteData@Byte stored from wreg
  2620  03E9  1283               	bcf	3,5	;RP0=0, select bank0
  2621  03EA  1303               	bcf	3,6	;RP1=0, select bank0
  2622  03EB  00C8               	movwf	LCD_WriteData@Byte
  2623                           
  2624                           ;Relogio_digital_timer0.c: 81: PORTEbits.RE0 = 1;
  2625  03EC  1409               	bsf	9,0	;volatile
  2626                           
  2627                           ;Relogio_digital_timer0.c: 83: PORTD = Byte;
  2628  03ED  0848               	movf	LCD_WriteData@Byte,w
  2629  03EE  0088               	movwf	8	;volatile
  2630                           
  2631                           ;Relogio_digital_timer0.c: 85: PORTEbits.RE1 = 1;
  2632  03EF  1489               	bsf	9,1	;volatile
  2633                           
  2634                           ;Relogio_digital_timer0.c: 87: _delay((unsigned long)((40)*(18432000/4000000.0)));
  2635  03F0  303C               	movlw	60
  2636  03F1  1283               	bcf	3,5	;RP0=0, select bank0
  2637  03F2  1303               	bcf	3,6	;RP1=0, select bank0
  2638  03F3  00C7               	movwf	??_LCD_WriteData
  2639  03F4                     u3667:	
  2640  03F4  0BC7               	decfsz	??_LCD_WriteData,f
  2641  03F5  2BF4               	goto	u3667
  2642  03F6  0000               	nop
  2643                           
  2644                           ;Relogio_digital_timer0.c: 89: PORTEbits.RE1 = 0;
  2645  03F7  1283               	bcf	3,5	;RP0=0, select bank0
  2646  03F8  1303               	bcf	3,6	;RP1=0, select bank0
  2647  03F9  1089               	bcf	9,1	;volatile
  2648  03FA  0008               	return
  2649  03FB                     __end_of_LCD_WriteData:	
  2650                           
  2651                           	psect	text14
  2652  0E71                     __ptext14:	
  2653 ;; *************** function _LCD_Cursor *****************
  2654 ;; Defined at:
  2655 ;;		line 42 in file "E:\Google Drive\Sistemas Embarcados\Projeto Relógio\Código MPLAB\Projeto_Relogio\Relogio_digital_ti
      +mer0.c"
  2656 ;; Parameters:    Size  Location     Type
  2657 ;;  Row             1    wreg     unsigned char 
  2658 ;;  Col             1    0[BANK0 ] unsigned char 
  2659 ;; Auto vars:     Size  Location     Type
  2660 ;;  Row             1    2[BANK0 ] unsigned char 
  2661 ;; Return value:  Size  Location     Type
  2662 ;;                  1    wreg      void 
  2663 ;; Registers used:
  2664 ;;		wreg, status,2, status,0
  2665 ;; Tracked objects:
  2666 ;;		On entry : 0/0
  2667 ;;		On exit  : 0/0
  2668 ;;		Unchanged: 0/0
  2669 ;; Data sizes:     COMMON   BANK0   BANK1   BANK3   BANK2
  2670 ;;      Params:         0       1       0       0       0
  2671 ;;      Locals:         0       1       0       0       0
  2672 ;;      Temps:          0       1       0       0       0
  2673 ;;      Totals:         0       3       0       0       0
  2674 ;;Total ram usage:        3 bytes
  2675 ;; Hardware stack levels used:    1
  2676 ;; Hardware stack levels required when called:    2
  2677 ;; This function calls:
  2678 ;;		Nothing
  2679 ;; This function is called by:
  2680 ;;		_exibeHorarioPiscando
  2681 ;;		_exibeHorarioPiscandoAlarme
  2682 ;;		_opcoesDeExibicaoHorario
  2683 ;;		_mostraMenuOpcoes
  2684 ;;		_exibeHorarioNormalmente
  2685 ;;		_main
  2686 ;; This function uses a non-reentrant model
  2687 ;;
  2688                           
  2689                           
  2690                           ;psect for function _LCD_Cursor
  2691  0E71                     _LCD_Cursor:	
  2692                           
  2693                           ;incstack = 0
  2694                           ; Regs used in _LCD_Cursor: [wreg+status,2+status,0]
  2695                           ;LCD_Cursor@Row stored from wreg
  2696  0E71  1283               	bcf	3,5	;RP0=0, select bank0
  2697  0E72  1303               	bcf	3,6	;RP1=0, select bank0
  2698  0E73  00C9               	movwf	LCD_Cursor@Row
  2699                           
  2700                           ;Relogio_digital_timer0.c: 44: PORTEbits.RE0 = 0;
  2701  0E74  1009               	bcf	9,0	;volatile
  2702                           
  2703                           ;Relogio_digital_timer0.c: 46: if (Row == 0)
  2704  0E75  0849               	movf	LCD_Cursor@Row,w
  2705  0E76  1D03               	btfss	3,2
  2706  0E77  2E7B               	goto	l2416
  2707                           
  2708                           ;Relogio_digital_timer0.c: 47: {
  2709                           ;Relogio_digital_timer0.c: 48: PORTD = 0x80 + Col;
  2710  0E78  0847               	movf	LCD_Cursor@Col,w
  2711  0E79  3E80               	addlw	128
  2712  0E7A  2E7D               	goto	L3
  2713  0E7B                     l2416:	
  2714                           ;Relogio_digital_timer0.c: 49: }
  2715                           
  2716                           
  2717                           ;Relogio_digital_timer0.c: 50: else
  2718                           ;Relogio_digital_timer0.c: 51: {
  2719                           ;Relogio_digital_timer0.c: 52: PORTD = 0xC0 + Col;
  2720  0E7B  0847               	movf	LCD_Cursor@Col,w
  2721  0E7C  3EC0               	addlw	192
  2722  0E7D                     L3:	
  2723  0E7D  0088               	movwf	8	;volatile
  2724                           
  2725                           ;Relogio_digital_timer0.c: 53: }
  2726                           ;Relogio_digital_timer0.c: 56: PORTEbits.RE1 = 1;
  2727  0E7E  1489               	bsf	9,1	;volatile
  2728                           
  2729                           ;Relogio_digital_timer0.c: 58: _delay((unsigned long)((40)*(18432000/4000000.0)));
  2730  0E7F  303C               	movlw	60
  2731  0E80  1283               	bcf	3,5	;RP0=0, select bank0
  2732  0E81  1303               	bcf	3,6	;RP1=0, select bank0
  2733  0E82  00C8               	movwf	??_LCD_Cursor
  2734  0E83                     u3677:	
  2735  0E83  0BC8               	decfsz	??_LCD_Cursor,f
  2736  0E84  2E83               	goto	u3677
  2737  0E85  0000               	nop
  2738                           
  2739                           ;Relogio_digital_timer0.c: 60: PORTEbits.RE1 = 0;
  2740  0E86  1283               	bcf	3,5	;RP0=0, select bank0
  2741  0E87  1303               	bcf	3,6	;RP1=0, select bank0
  2742  0E88  1089               	bcf	9,1	;volatile
  2743  0E89  0008               	return
  2744  0E8A                     __end_of_LCD_Cursor:	
  2745                           
  2746                           	psect	text15
  2747  0FA5                     __ptext15:	
  2748 ;; *************** function _LCD_Clear *****************
  2749 ;; Defined at:
  2750 ;;		line 103 in file "E:\Google Drive\Sistemas Embarcados\Projeto Relógio\Código MPLAB\Projeto_Relogio\Relogio_digital_t
      +imer0.c"
  2751 ;; Parameters:    Size  Location     Type
  2752 ;;		None
  2753 ;; Auto vars:     Size  Location     Type
  2754 ;;		None
  2755 ;; Return value:  Size  Location     Type
  2756 ;;                  1    wreg      void 
  2757 ;; Registers used:
  2758 ;;		wreg, status,2, status,0, pclath, cstack
  2759 ;; Tracked objects:
  2760 ;;		On entry : 0/0
  2761 ;;		On exit  : 0/0
  2762 ;;		Unchanged: 0/0
  2763 ;; Data sizes:     COMMON   BANK0   BANK1   BANK3   BANK2
  2764 ;;      Params:         0       0       0       0       0
  2765 ;;      Locals:         0       0       0       0       0
  2766 ;;      Temps:          0       2       0       0       0
  2767 ;;      Totals:         0       2       0       0       0
  2768 ;;Total ram usage:        2 bytes
  2769 ;; Hardware stack levels used:    1
  2770 ;; Hardware stack levels required when called:    3
  2771 ;; This function calls:
  2772 ;;		_LCD_WriteCmd
  2773 ;; This function is called by:
  2774 ;;		_exibeTela
  2775 ;;		_main
  2776 ;; This function uses a non-reentrant model
  2777 ;;
  2778                           
  2779                           
  2780                           ;psect for function _LCD_Clear
  2781  0FA5                     _LCD_Clear:	
  2782                           
  2783                           ;Relogio_digital_timer0.c: 105: LCD_WriteCmd(0x01);
  2784                           
  2785                           ;incstack = 0
  2786                           ; Regs used in _LCD_Clear: [wreg+status,2+status,0+pclath+cstack]
  2787  0FA5  3001               	movlw	1
  2788  0FA6  120A  158A  265F  120A  158A  	fcall	_LCD_WriteCmd
  2789                           
  2790                           ;Relogio_digital_timer0.c: 107: _delay((unsigned long)((2)*(18432000/4000.0)));
  2791  0FAB  300C               	movlw	12
  2792  0FAC  1283               	bcf	3,5	;RP0=0, select bank0
  2793  0FAD  1303               	bcf	3,6	;RP1=0, select bank0
  2794  0FAE  00CA               	movwf	??_LCD_Clear+1
  2795  0FAF  30F6               	movlw	246
  2796  0FB0  00C9               	movwf	??_LCD_Clear
  2797  0FB1                     u3687:	
  2798  0FB1  0BC9               	decfsz	??_LCD_Clear,f
  2799  0FB2  2FB1               	goto	u3687
  2800  0FB3  0BCA               	decfsz	??_LCD_Clear+1,f
  2801  0FB4  2FB1               	goto	u3687
  2802  0FB5  0000               	nop
  2803                           
  2804                           ;Relogio_digital_timer0.c: 109: LCD_WriteCmd(0x0C);
  2805  0FB6  300C               	movlw	12
  2806  0FB7  120A  158A  265F  120A  158A  	fcall	_LCD_WriteCmd
  2807                           
  2808                           ;Relogio_digital_timer0.c: 111: _delay((unsigned long)((40)*(18432000/4000000.0)));
  2809  0FBC  303C               	movlw	60
  2810  0FBD  1283               	bcf	3,5	;RP0=0, select bank0
  2811  0FBE  1303               	bcf	3,6	;RP1=0, select bank0
  2812  0FBF  00C9               	movwf	??_LCD_Clear
  2813  0FC0                     u3697:	
  2814  0FC0  0BC9               	decfsz	??_LCD_Clear,f
  2815  0FC1  2FC0               	goto	u3697
  2816  0FC2  0000               	nop
  2817                           
  2818                           ;Relogio_digital_timer0.c: 113: LCD_WriteCmd(0x06);
  2819  0FC3  3006               	movlw	6
  2820  0FC4  120A  158A  265F  120A  158A  	fcall	_LCD_WriteCmd
  2821                           
  2822                           ;Relogio_digital_timer0.c: 115: _delay((unsigned long)((40)*(18432000/4000000.0)));
  2823  0FC9  303C               	movlw	60
  2824  0FCA  1283               	bcf	3,5	;RP0=0, select bank0
  2825  0FCB  1303               	bcf	3,6	;RP1=0, select bank0
  2826  0FCC  00C9               	movwf	??_LCD_Clear
  2827  0FCD                     u3707:	
  2828  0FCD  0BC9               	decfsz	??_LCD_Clear,f
  2829  0FCE  2FCD               	goto	u3707
  2830  0FCF  0000               	nop
  2831  0FD0  0008               	return
  2832  0FD1                     __end_of_LCD_Clear:	
  2833                           
  2834                           	psect	text16
  2835  003C                     __ptext16:	
  2836 ;; *************** function _executaAcaoSegundoBotao *****************
  2837 ;; Defined at:
  2838 ;;		line 418 in file "E:\Google Drive\Sistemas Embarcados\Projeto Relógio\Código MPLAB\Projeto_Relogio\Relogio_digital_t
      +imer0.c"
  2839 ;; Parameters:    Size  Location     Type
  2840 ;;		None
  2841 ;; Auto vars:     Size  Location     Type
  2842 ;;  tempoSeguran    2    0[BANK0 ] int 
  2843 ;; Return value:  Size  Location     Type
  2844 ;;                  1    wreg      void 
  2845 ;; Registers used:
  2846 ;;		wreg, status,2, status,0, btemp+1, pclath, cstack
  2847 ;; Tracked objects:
  2848 ;;		On entry : 0/0
  2849 ;;		On exit  : 0/0
  2850 ;;		Unchanged: 0/0
  2851 ;; Data sizes:     COMMON   BANK0   BANK1   BANK3   BANK2
  2852 ;;      Params:         0       0       0       0       0
  2853 ;;      Locals:         0       2       0       0       0
  2854 ;;      Temps:          0       0       0       0       0
  2855 ;;      Totals:         0       2       0       0       0
  2856 ;;Total ram usage:        2 bytes
  2857 ;; Hardware stack levels used:    1
  2858 ;; Hardware stack levels required when called:    3
  2859 ;; This function calls:
  2860 ;;		_diminuirOpcaoMenu
  2861 ;;		_diminuirValorDoLadoEscolhido
  2862 ;;		_diminuirValorDoLadoEscolhidoAlarme
  2863 ;;		_trocaDeLadoEdicao
  2864 ;;		_trocaExibicaoHorario
  2865 ;;		_trocarSubMenuEscolhido
  2866 ;; This function is called by:
  2867 ;;		_main
  2868 ;; This function uses a non-reentrant model
  2869 ;;
  2870                           
  2871                           
  2872                           ;psect for function _executaAcaoSegundoBotao
  2873  003C                     _executaAcaoSegundoBotao:	
  2874                           
  2875                           ;Relogio_digital_timer0.c: 420: int tempoSegurando = tempoSegurandoSegundoBotaoMili;
  2876                           
  2877                           ;incstack = 0
  2878                           ; Regs used in _executaAcaoSegundoBotao: [wreg+status,2+status,0+btemp+1+pclath+cstack]
  2879  003C  1283               	bcf	3,5	;RP0=0, select bank0
  2880  003D  1303               	bcf	3,6	;RP1=0, select bank0
  2881  003E  082F               	movf	_tempoSegurandoSegundoBotaoMili+1,w
  2882  003F  00C8               	movwf	executaAcaoSegundoBotao@tempoSegurando+1
  2883  0040  082E               	movf	_tempoSegurandoSegundoBotaoMili,w
  2884  0041  00C7               	movwf	executaAcaoSegundoBotao@tempoSegurando
  2885                           
  2886                           ;Relogio_digital_timer0.c: 421: tempoSegurandoSegundoBotaoMili = 0;
  2887  0042  01AE               	clrf	_tempoSegurandoSegundoBotaoMili
  2888  0043  01AF               	clrf	_tempoSegurandoSegundoBotaoMili+1
  2889                           
  2890                           ;Relogio_digital_timer0.c: 423: if (escolhaModo == menu && tempoSegurando < 3000) {
  2891  0044  0375               	decf	_escolhaModo,w
  2892  0045  0476               	iorwf	_escolhaModo+1,w
  2893  0046  1D03               	btfss	3,2
  2894  0047  2857               	goto	l2846
  2895  0048  0848               	movf	executaAcaoSegundoBotao@tempoSegurando+1,w
  2896  0049  3A80               	xorlw	128
  2897  004A  00FF               	movwf	127
  2898  004B  308B               	movlw	139
  2899  004C  027F               	subwf	127,w
  2900  004D  1D03               	skipz
  2901  004E  2851               	goto	u3315
  2902  004F  30B8               	movlw	184
  2903  0050  0247               	subwf	executaAcaoSegundoBotao@tempoSegurando,w
  2904  0051                     u3315:	
  2905  0051  1803               	skipnc
  2906  0052  2857               	goto	l2846
  2907                           
  2908                           ;Relogio_digital_timer0.c: 424: diminuirOpcaoMenu();
  2909  0053  120A  158A  26A4   	fcall	_diminuirOpcaoMenu
  2910                           
  2911                           ;Relogio_digital_timer0.c: 425: return;
  2912  0056  0008               	return
  2913  0057                     l2846:	
  2914                           
  2915                           ;Relogio_digital_timer0.c: 426: }
  2916                           ;Relogio_digital_timer0.c: 428: if (escolhaModo == menu && tempoSegurando >= 3000) {
  2917  0057  0375               	decf	_escolhaModo,w
  2918  0058  0476               	iorwf	_escolhaModo+1,w
  2919  0059  1D03               	btfss	3,2
  2920  005A  2877               	goto	l2858
  2921  005B  1283               	bcf	3,5	;RP0=0, select bank0
  2922  005C  1303               	bcf	3,6	;RP1=0, select bank0
  2923  005D  0848               	movf	executaAcaoSegundoBotao@tempoSegurando+1,w
  2924  005E  3A80               	xorlw	128
  2925  005F  00FF               	movwf	127
  2926  0060  308B               	movlw	139
  2927  0061  027F               	subwf	127,w
  2928  0062  1D03               	skipz
  2929  0063  2866               	goto	u3335
  2930  0064  30B8               	movlw	184
  2931  0065  0247               	subwf	executaAcaoSegundoBotao@tempoSegurando,w
  2932  0066                     u3335:	
  2933  0066  1C03               	skipc
  2934  0067  2877               	goto	l2858
  2935                           
  2936                           ;Relogio_digital_timer0.c: 429: escolhaModo = escolhaMenu;
  2937  0068  1283               	bcf	3,5	;RP0=0, select bank0
  2938  0069  1303               	bcf	3,6	;RP1=0, select bank0
  2939  006A  0856               	movf	_escolhaMenu+1,w
  2940  006B  00F6               	movwf	_escolhaModo+1
  2941  006C  0855               	movf	_escolhaMenu,w
  2942  006D  00F5               	movwf	_escolhaModo
  2943                           
  2944                           ;Relogio_digital_timer0.c: 430: flagEditandoUmLado = 0;
  2945  006E  01F7               	clrf	_flagEditandoUmLado
  2946  006F  01F8               	clrf	_flagEditandoUmLado+1
  2947                           
  2948                           ;Relogio_digital_timer0.c: 431: flagLadoParaEditar = 0;
  2949  0070  01A8               	clrf	_flagLadoParaEditar
  2950  0071  01A9               	clrf	_flagLadoParaEditar+1
  2951                           
  2952                           ;Relogio_digital_timer0.c: 432: flagLimparTela = 1;
  2953  0072  3001               	movlw	1
  2954  0073  00A4               	movwf	_flagLimparTela
  2955  0074  3000               	movlw	0
  2956  0075  00A5               	movwf	_flagLimparTela+1
  2957                           
  2958                           ;Relogio_digital_timer0.c: 433: return;
  2959  0076  0008               	return
  2960  0077                     l2858:	
  2961                           
  2962                           ;Relogio_digital_timer0.c: 434: }
  2963                           ;Relogio_digital_timer0.c: 436: if ((escolhaModo == edicaoHorario || escolhaModo == alar
      +                          me) && flagEditandoUmLado == 0 && tempoSegurando < 3000) {
  2964  0077  3002               	movlw	2
  2965  0078  0675               	xorwf	_escolhaModo,w
  2966  0079  0476               	iorwf	_escolhaModo+1,w
  2967  007A  1903               	btfsc	3,2
  2968  007B  2881               	goto	l2862
  2969  007C  3003               	movlw	3
  2970  007D  0675               	xorwf	_escolhaModo,w
  2971  007E  0476               	iorwf	_escolhaModo+1,w
  2972  007F  1D03               	btfss	3,2
  2973  0080  2896               	goto	l2870
  2974  0081                     l2862:	
  2975  0081  0877               	movf	_flagEditandoUmLado,w
  2976  0082  0478               	iorwf	_flagEditandoUmLado+1,w
  2977  0083  1D03               	btfss	3,2
  2978  0084  2896               	goto	l2870
  2979  0085  1283               	bcf	3,5	;RP0=0, select bank0
  2980  0086  1303               	bcf	3,6	;RP1=0, select bank0
  2981  0087  0848               	movf	executaAcaoSegundoBotao@tempoSegurando+1,w
  2982  0088  3A80               	xorlw	128
  2983  0089  00FF               	movwf	127
  2984  008A  308B               	movlw	139
  2985  008B  027F               	subwf	127,w
  2986  008C  1D03               	skipz
  2987  008D  2890               	goto	u3375
  2988  008E  30B8               	movlw	184
  2989  008F  0247               	subwf	executaAcaoSegundoBotao@tempoSegurando,w
  2990  0090                     u3375:	
  2991  0090  1803               	skipnc
  2992  0091  2896               	goto	l2870
  2993                           
  2994                           ;Relogio_digital_timer0.c: 437: trocaDeLadoEdicao();
  2995  0092  120A  158A  2643   	fcall	_trocaDeLadoEdicao
  2996                           
  2997                           ;Relogio_digital_timer0.c: 438: return;
  2998  0095  0008               	return
  2999  0096                     l2870:	
  3000                           
  3001                           ;Relogio_digital_timer0.c: 439: }
  3002                           ;Relogio_digital_timer0.c: 441: if ((escolhaModo == edicaoHorario || escolhaModo == alar
      +                          me) && flagEditandoUmLado == 0 && tempoSegurando >= 3000) {
  3003  0096  3002               	movlw	2
  3004  0097  0675               	xorwf	_escolhaModo,w
  3005  0098  0476               	iorwf	_escolhaModo+1,w
  3006  0099  1903               	btfsc	3,2
  3007  009A  28A0               	goto	l2874
  3008  009B  3003               	movlw	3
  3009  009C  0675               	xorwf	_escolhaModo,w
  3010  009D  0476               	iorwf	_escolhaModo+1,w
  3011  009E  1D03               	btfss	3,2
  3012  009F  28B6               	goto	l2882
  3013  00A0                     l2874:	
  3014  00A0  0877               	movf	_flagEditandoUmLado,w
  3015  00A1  0478               	iorwf	_flagEditandoUmLado+1,w
  3016  00A2  1D03               	btfss	3,2
  3017  00A3  28B6               	goto	l2882
  3018  00A4  1283               	bcf	3,5	;RP0=0, select bank0
  3019  00A5  1303               	bcf	3,6	;RP1=0, select bank0
  3020  00A6  0848               	movf	executaAcaoSegundoBotao@tempoSegurando+1,w
  3021  00A7  3A80               	xorlw	128
  3022  00A8  00FF               	movwf	127
  3023  00A9  308B               	movlw	139
  3024  00AA  027F               	subwf	127,w
  3025  00AB  1D03               	skipz
  3026  00AC  28AF               	goto	u3415
  3027  00AD  30B8               	movlw	184
  3028  00AE  0247               	subwf	executaAcaoSegundoBotao@tempoSegurando,w
  3029  00AF                     u3415:	
  3030  00AF  1C03               	skipc
  3031  00B0  28B6               	goto	l2882
  3032                           
  3033                           ;Relogio_digital_timer0.c: 442: flagEditandoUmLado = 1;
  3034  00B1  3001               	movlw	1
  3035  00B2  00F7               	movwf	_flagEditandoUmLado
  3036  00B3  3000               	movlw	0
  3037  00B4  00F8               	movwf	_flagEditandoUmLado+1
  3038                           
  3039                           ;Relogio_digital_timer0.c: 443: return;
  3040  00B5  0008               	return
  3041  00B6                     l2882:	
  3042                           
  3043                           ;Relogio_digital_timer0.c: 444: }
  3044                           ;Relogio_digital_timer0.c: 446: if (escolhaModo == edicaoHorario && flagEditandoUmLado =
      +                          = 1 && tempoSegurando < 3000) {
  3045  00B6  3002               	movlw	2
  3046  00B7  0675               	xorwf	_escolhaModo,w
  3047  00B8  0476               	iorwf	_escolhaModo+1,w
  3048  00B9  1D03               	btfss	3,2
  3049  00BA  28D0               	goto	l2892
  3050  00BB  0377               	decf	_flagEditandoUmLado,w
  3051  00BC  0478               	iorwf	_flagEditandoUmLado+1,w
  3052  00BD  1D03               	btfss	3,2
  3053  00BE  28D0               	goto	l2892
  3054  00BF  1283               	bcf	3,5	;RP0=0, select bank0
  3055  00C0  1303               	bcf	3,6	;RP1=0, select bank0
  3056  00C1  0848               	movf	executaAcaoSegundoBotao@tempoSegurando+1,w
  3057  00C2  3A80               	xorlw	128
  3058  00C3  00FF               	movwf	127
  3059  00C4  308B               	movlw	139
  3060  00C5  027F               	subwf	127,w
  3061  00C6  1D03               	skipz
  3062  00C7  28CA               	goto	u3445
  3063  00C8  30B8               	movlw	184
  3064  00C9  0247               	subwf	executaAcaoSegundoBotao@tempoSegurando,w
  3065  00CA                     u3445:	
  3066  00CA  1803               	skipnc
  3067  00CB  28D0               	goto	l2892
  3068                           
  3069                           ;Relogio_digital_timer0.c: 447: diminuirValorDoLadoEscolhido();
  3070  00CC  120A  158A  2779   	fcall	_diminuirValorDoLadoEscolhido
  3071                           
  3072                           ;Relogio_digital_timer0.c: 448: return;
  3073  00CF  0008               	return
  3074  00D0                     l2892:	
  3075                           
  3076                           ;Relogio_digital_timer0.c: 449: }
  3077                           ;Relogio_digital_timer0.c: 451: if (escolhaModo == alarme && flagEditandoUmLado == 1 && 
      +                          tempoSegurando < 3000) {
  3078  00D0  3003               	movlw	3
  3079  00D1  0675               	xorwf	_escolhaModo,w
  3080  00D2  0476               	iorwf	_escolhaModo+1,w
  3081  00D3  1D03               	btfss	3,2
  3082  00D4  28EA               	goto	l2902
  3083  00D5  0377               	decf	_flagEditandoUmLado,w
  3084  00D6  0478               	iorwf	_flagEditandoUmLado+1,w
  3085  00D7  1D03               	btfss	3,2
  3086  00D8  28EA               	goto	l2902
  3087  00D9  1283               	bcf	3,5	;RP0=0, select bank0
  3088  00DA  1303               	bcf	3,6	;RP1=0, select bank0
  3089  00DB  0848               	movf	executaAcaoSegundoBotao@tempoSegurando+1,w
  3090  00DC  3A80               	xorlw	128
  3091  00DD  00FF               	movwf	127
  3092  00DE  308B               	movlw	139
  3093  00DF  027F               	subwf	127,w
  3094  00E0  1D03               	skipz
  3095  00E1  28E4               	goto	u3475
  3096  00E2  30B8               	movlw	184
  3097  00E3  0247               	subwf	executaAcaoSegundoBotao@tempoSegurando,w
  3098  00E4                     u3475:	
  3099  00E4  1803               	skipnc
  3100  00E5  28EA               	goto	l2902
  3101                           
  3102                           ;Relogio_digital_timer0.c: 452: diminuirValorDoLadoEscolhidoAlarme();
  3103  00E6  120A  158A  26BE   	fcall	_diminuirValorDoLadoEscolhidoAlarme
  3104                           
  3105                           ;Relogio_digital_timer0.c: 453: return;
  3106  00E9  0008               	return
  3107  00EA                     l2902:	
  3108                           
  3109                           ;Relogio_digital_timer0.c: 454: }
  3110                           ;Relogio_digital_timer0.c: 456: if ((escolhaModo == edicaoHorario || escolhaModo == alar
      +                          me) && flagEditandoUmLado == 1 && tempoSegurando >= 3000) {
  3111  00EA  3002               	movlw	2
  3112  00EB  0675               	xorwf	_escolhaModo,w
  3113  00EC  0476               	iorwf	_escolhaModo+1,w
  3114  00ED  1903               	btfsc	3,2
  3115  00EE  28F4               	goto	l2906
  3116  00EF  3003               	movlw	3
  3117  00F0  0675               	xorwf	_escolhaModo,w
  3118  00F1  0476               	iorwf	_escolhaModo+1,w
  3119  00F2  1D03               	btfss	3,2
  3120  00F3  2908               	goto	l2914
  3121  00F4                     l2906:	
  3122  00F4  0377               	decf	_flagEditandoUmLado,w
  3123  00F5  0478               	iorwf	_flagEditandoUmLado+1,w
  3124  00F6  1D03               	btfss	3,2
  3125  00F7  2908               	goto	l2914
  3126  00F8  1283               	bcf	3,5	;RP0=0, select bank0
  3127  00F9  1303               	bcf	3,6	;RP1=0, select bank0
  3128  00FA  0848               	movf	executaAcaoSegundoBotao@tempoSegurando+1,w
  3129  00FB  3A80               	xorlw	128
  3130  00FC  00FF               	movwf	127
  3131  00FD  308B               	movlw	139
  3132  00FE  027F               	subwf	127,w
  3133  00FF  1D03               	skipz
  3134  0100  2903               	goto	u3515
  3135  0101  30B8               	movlw	184
  3136  0102  0247               	subwf	executaAcaoSegundoBotao@tempoSegurando,w
  3137  0103                     u3515:	
  3138  0103  1C03               	skipc
  3139  0104  2908               	goto	l2914
  3140                           
  3141                           ;Relogio_digital_timer0.c: 457: flagEditandoUmLado = 0;
  3142  0105  01F7               	clrf	_flagEditandoUmLado
  3143  0106  01F8               	clrf	_flagEditandoUmLado+1
  3144                           
  3145                           ;Relogio_digital_timer0.c: 458: return;
  3146  0107  0008               	return
  3147  0108                     l2914:	
  3148                           
  3149                           ;Relogio_digital_timer0.c: 459: }
  3150                           ;Relogio_digital_timer0.c: 461: if (escolhaModo == exibicaoHorario && tempoSegurando < 3
      +                          000) {
  3151  0108  3004               	movlw	4
  3152  0109  0675               	xorwf	_escolhaModo,w
  3153  010A  0476               	iorwf	_escolhaModo+1,w
  3154  010B  1D03               	btfss	3,2
  3155  010C  291E               	goto	l2922
  3156  010D  1283               	bcf	3,5	;RP0=0, select bank0
  3157  010E  1303               	bcf	3,6	;RP1=0, select bank0
  3158  010F  0848               	movf	executaAcaoSegundoBotao@tempoSegurando+1,w
  3159  0110  3A80               	xorlw	128
  3160  0111  00FF               	movwf	127
  3161  0112  308B               	movlw	139
  3162  0113  027F               	subwf	127,w
  3163  0114  1D03               	skipz
  3164  0115  2918               	goto	u3535
  3165  0116  30B8               	movlw	184
  3166  0117  0247               	subwf	executaAcaoSegundoBotao@tempoSegurando,w
  3167  0118                     u3535:	
  3168  0118  1803               	skipnc
  3169  0119  291E               	goto	l2922
  3170                           
  3171                           ;Relogio_digital_timer0.c: 462: trocarSubMenuEscolhido();
  3172  011A  120A  158A  2651   	fcall	_trocarSubMenuEscolhido
  3173                           
  3174                           ;Relogio_digital_timer0.c: 463: return;
  3175  011D  0008               	return
  3176  011E                     l2922:	
  3177                           
  3178                           ;Relogio_digital_timer0.c: 464: }
  3179                           ;Relogio_digital_timer0.c: 466: if (escolhaModo == exibicaoHorario && tempoSegurando >= 
      +                          3000) {
  3180  011E  3004               	movlw	4
  3181  011F  0675               	xorwf	_escolhaModo,w
  3182  0120  0476               	iorwf	_escolhaModo+1,w
  3183  0121  1D03               	btfss	3,2
  3184  0122  0008               	return
  3185  0123  1283               	bcf	3,5	;RP0=0, select bank0
  3186  0124  1303               	bcf	3,6	;RP1=0, select bank0
  3187  0125  0848               	movf	executaAcaoSegundoBotao@tempoSegurando+1,w
  3188  0126  3A80               	xorlw	128
  3189  0127  00FF               	movwf	127
  3190  0128  308B               	movlw	139
  3191  0129  027F               	subwf	127,w
  3192  012A  1D03               	skipz
  3193  012B  292E               	goto	u3555
  3194  012C  30B8               	movlw	184
  3195  012D  0247               	subwf	executaAcaoSegundoBotao@tempoSegurando,w
  3196  012E                     u3555:	
  3197  012E  1C03               	skipc
  3198  012F  0008               	return
  3199                           
  3200                           ;Relogio_digital_timer0.c: 467: trocaExibicaoHorario();
  3201  0130  120A  118A  2678   	fcall	_trocaExibicaoHorario
  3202                           
  3203                           ;Relogio_digital_timer0.c: 468: escolhaModo = relogio;
  3204  0133  01F5               	clrf	_escolhaModo
  3205  0134  01F6               	clrf	_escolhaModo+1
  3206                           
  3207                           ;Relogio_digital_timer0.c: 469: flagLimparTela = 1;
  3208  0135  3001               	movlw	1
  3209  0136  1283               	bcf	3,5	;RP0=0, select bank0
  3210  0137  1303               	bcf	3,6	;RP1=0, select bank0
  3211  0138  00A4               	movwf	_flagLimparTela
  3212  0139  3000               	movlw	0
  3213  013A  00A5               	movwf	_flagLimparTela+1
  3214                           
  3215                           ;Relogio_digital_timer0.c: 470: return;
  3216  013B  0008               	return
  3217  013C                     __end_of_executaAcaoSegundoBotao:	
  3218                           
  3219                           	psect	text17
  3220  0678                     __ptext17:	
  3221 ;; *************** function _trocaExibicaoHorario *****************
  3222 ;; Defined at:
  3223 ;;		line 345 in file "E:\Google Drive\Sistemas Embarcados\Projeto Relógio\Código MPLAB\Projeto_Relogio\Relogio_digital_t
      +imer0.c"
  3224 ;; Parameters:    Size  Location     Type
  3225 ;;		None
  3226 ;; Auto vars:     Size  Location     Type
  3227 ;;		None
  3228 ;; Return value:  Size  Location     Type
  3229 ;;                  1    wreg      void 
  3230 ;; Registers used:
  3231 ;;		wreg, status,2, status,0, btemp+1
  3232 ;; Tracked objects:
  3233 ;;		On entry : 0/0
  3234 ;;		On exit  : 0/0
  3235 ;;		Unchanged: 0/0
  3236 ;; Data sizes:     COMMON   BANK0   BANK1   BANK3   BANK2
  3237 ;;      Params:         0       0       0       0       0
  3238 ;;      Locals:         0       0       0       0       0
  3239 ;;      Temps:          0       0       0       0       0
  3240 ;;      Totals:         0       0       0       0       0
  3241 ;;Total ram usage:        0 bytes
  3242 ;; Hardware stack levels used:    1
  3243 ;; Hardware stack levels required when called:    2
  3244 ;; This function calls:
  3245 ;;		Nothing
  3246 ;; This function is called by:
  3247 ;;		_executaAcaoSegundoBotao
  3248 ;; This function uses a non-reentrant model
  3249 ;;
  3250                           
  3251                           
  3252                           ;psect for function _trocaExibicaoHorario
  3253  0678                     _trocaExibicaoHorario:	
  3254                           
  3255                           ;Relogio_digital_timer0.c: 347: if (escolhaSubMenu == 0) {
  3256                           
  3257                           ;incstack = 0
  3258                           ; Regs used in _trocaExibicaoHorario: [wreg+status,2+status,0+btemp+1]
  3259  0678  1283               	bcf	3,5	;RP0=0, select bank0
  3260  0679  1303               	bcf	3,6	;RP1=0, select bank0
  3261  067A  0820               	movf	_escolhaSubMenu,w
  3262  067B  0421               	iorwf	_escolhaSubMenu+1,w
  3263  067C  1D03               	btfss	3,2
  3264  067D  2E97               	goto	l2614
  3265                           
  3266                           ;Relogio_digital_timer0.c: 348: if (flagPm == 1) {
  3267  067E  0322               	decf	_flagPm,w
  3268  067F  0423               	iorwf	_flagPm+1,w
  3269  0680  1D03               	btfss	3,2
  3270  0681  2E92               	goto	l2610
  3271                           
  3272                           ;Relogio_digital_timer0.c: 349: horas = horas + 12;
  3273  0682  0838               	movf	_horas,w
  3274  0683  3E0C               	addlw	12
  3275  0684  00B8               	movwf	_horas
  3276  0685  0839               	movf	_horas+1,w
  3277  0686  1803               	skipnc
  3278  0687  3E01               	addlw	1
  3279  0688  3E00               	addlw	0
  3280  0689  00B9               	movwf	_horas+1
  3281                           
  3282                           ;Relogio_digital_timer0.c: 350: horasAlarme = horasAlarme + 12;
  3283  068A  0832               	movf	_horasAlarme,w
  3284  068B  3E0C               	addlw	12
  3285  068C  00B2               	movwf	_horasAlarme
  3286  068D  0833               	movf	_horasAlarme+1,w
  3287  068E  1803               	skipnc
  3288  068F  3E01               	addlw	1
  3289  0690  3E00               	addlw	0
  3290  0691  00B3               	movwf	_horasAlarme+1
  3291  0692                     l2610:	
  3292                           
  3293                           ;Relogio_digital_timer0.c: 351: }
  3294                           ;Relogio_digital_timer0.c: 353: limiteHorario = 24;
  3295  0692  3018               	movlw	24
  3296  0693  00D7               	movwf	_limiteHorario
  3297  0694  3000               	movlw	0
  3298  0695  00D8               	movwf	_limiteHorario+1
  3299                           
  3300                           ;Relogio_digital_timer0.c: 354: return;
  3301  0696  0008               	return
  3302  0697                     l2614:	
  3303                           
  3304                           ;Relogio_digital_timer0.c: 355: }
  3305                           ;Relogio_digital_timer0.c: 357: limiteHorario = 12;
  3306  0697  300C               	movlw	12
  3307  0698  00D7               	movwf	_limiteHorario
  3308  0699  3000               	movlw	0
  3309  069A  00D8               	movwf	_limiteHorario+1
  3310                           
  3311                           ;Relogio_digital_timer0.c: 359: if (horas >= 12) {
  3312  069B  0839               	movf	_horas+1,w
  3313  069C  3A80               	xorlw	128
  3314  069D  00FF               	movwf	127
  3315  069E  3080               	movlw	128
  3316  069F  027F               	subwf	127,w
  3317  06A0  1D03               	skipz
  3318  06A1  2EA4               	goto	u3005
  3319  06A2  300C               	movlw	12
  3320  06A3  0238               	subwf	_horas,w
  3321  06A4                     u3005:	
  3322  06A4  1C03               	skipc
  3323  06A5  2EB5               	goto	l2622
  3324                           
  3325                           ;Relogio_digital_timer0.c: 360: horas = horas - 12;
  3326  06A6  1283               	bcf	3,5	;RP0=0, select bank0
  3327  06A7  1303               	bcf	3,6	;RP1=0, select bank0
  3328  06A8  0838               	movf	_horas,w
  3329  06A9  3EF4               	addlw	244
  3330  06AA  00B8               	movwf	_horas
  3331  06AB  0839               	movf	_horas+1,w
  3332  06AC  1803               	skipnc
  3333  06AD  3E01               	addlw	1
  3334  06AE  3EFF               	addlw	255
  3335  06AF  00B9               	movwf	_horas+1
  3336                           
  3337                           ;Relogio_digital_timer0.c: 361: flagPm = 1;
  3338  06B0  3001               	movlw	1
  3339  06B1  00A2               	movwf	_flagPm
  3340  06B2  3000               	movlw	0
  3341  06B3  00A3               	movwf	_flagPm+1
  3342                           
  3343                           ;Relogio_digital_timer0.c: 362: } else {
  3344  06B4  2EB9               	goto	l2624
  3345  06B5                     l2622:	
  3346                           
  3347                           ;Relogio_digital_timer0.c: 363: flagPm = 0;
  3348  06B5  1283               	bcf	3,5	;RP0=0, select bank0
  3349  06B6  1303               	bcf	3,6	;RP1=0, select bank0
  3350  06B7  01A2               	clrf	_flagPm
  3351  06B8  01A3               	clrf	_flagPm+1
  3352  06B9                     l2624:	
  3353                           
  3354                           ;Relogio_digital_timer0.c: 364: }
  3355                           ;Relogio_digital_timer0.c: 366: if (horasAlarme >= 12) {
  3356  06B9  0833               	movf	_horasAlarme+1,w
  3357  06BA  3A80               	xorlw	128
  3358  06BB  00FF               	movwf	127
  3359  06BC  3080               	movlw	128
  3360  06BD  027F               	subwf	127,w
  3361  06BE  1D03               	skipz
  3362  06BF  2EC2               	goto	u3015
  3363  06C0  300C               	movlw	12
  3364  06C1  0232               	subwf	_horasAlarme,w
  3365  06C2                     u3015:	
  3366  06C2  1C03               	skipc
  3367  06C3  0008               	return
  3368                           
  3369                           ;Relogio_digital_timer0.c: 367: horasAlarme = horasAlarme - 12;
  3370  06C4  1283               	bcf	3,5	;RP0=0, select bank0
  3371  06C5  1303               	bcf	3,6	;RP1=0, select bank0
  3372  06C6  0832               	movf	_horasAlarme,w
  3373  06C7  3EF4               	addlw	244
  3374  06C8  00B2               	movwf	_horasAlarme
  3375  06C9  0833               	movf	_horasAlarme+1,w
  3376  06CA  1803               	skipnc
  3377  06CB  3E01               	addlw	1
  3378  06CC  3EFF               	addlw	255
  3379  06CD  00B3               	movwf	_horasAlarme+1
  3380  06CE  0008               	return
  3381  06CF                     __end_of_trocaExibicaoHorario:	
  3382                           
  3383                           	psect	text18
  3384  0EBE                     __ptext18:	
  3385 ;; *************** function _diminuirValorDoLadoEscolhidoAlarme *****************
  3386 ;; Defined at:
  3387 ;;		line 285 in file "E:\Google Drive\Sistemas Embarcados\Projeto Relógio\Código MPLAB\Projeto_Relogio\Relogio_digital_t
      +imer0.c"
  3388 ;; Parameters:    Size  Location     Type
  3389 ;;		None
  3390 ;; Auto vars:     Size  Location     Type
  3391 ;;		None
  3392 ;; Return value:  Size  Location     Type
  3393 ;;                  1    wreg      void 
  3394 ;; Registers used:
  3395 ;;		wreg, status,2, status,0
  3396 ;; Tracked objects:
  3397 ;;		On entry : 0/0
  3398 ;;		On exit  : 0/0
  3399 ;;		Unchanged: 0/0
  3400 ;; Data sizes:     COMMON   BANK0   BANK1   BANK3   BANK2
  3401 ;;      Params:         0       0       0       0       0
  3402 ;;      Locals:         0       0       0       0       0
  3403 ;;      Temps:          0       0       0       0       0
  3404 ;;      Totals:         0       0       0       0       0
  3405 ;;Total ram usage:        0 bytes
  3406 ;; Hardware stack levels used:    1
  3407 ;; Hardware stack levels required when called:    2
  3408 ;; This function calls:
  3409 ;;		Nothing
  3410 ;; This function is called by:
  3411 ;;		_executaAcaoSegundoBotao
  3412 ;; This function uses a non-reentrant model
  3413 ;;
  3414                           
  3415                           
  3416                           ;psect for function _diminuirValorDoLadoEscolhidoAlarme
  3417  0EBE                     _diminuirValorDoLadoEscolhidoAlarme:	
  3418                           
  3419                           ;Relogio_digital_timer0.c: 287: if (flagLadoParaEditar == 1) {
  3420                           
  3421                           ;incstack = 0
  3422                           ; Regs used in _diminuirValorDoLadoEscolhidoAlarme: [wreg+status,2+status,0]
  3423  0EBE  1283               	bcf	3,5	;RP0=0, select bank0
  3424  0EBF  1303               	bcf	3,6	;RP1=0, select bank0
  3425  0EC0  0328               	decf	_flagLadoParaEditar,w
  3426  0EC1  0429               	iorwf	_flagLadoParaEditar+1,w
  3427  0EC2  1D03               	btfss	3,2
  3428  0EC3  2ECF               	goto	l2564
  3429                           
  3430                           ;Relogio_digital_timer0.c: 288: if (horasAlarme == 0) {
  3431  0EC4  0832               	movf	_horasAlarme,w
  3432  0EC5  0433               	iorwf	_horasAlarme+1,w
  3433  0EC6  1903               	btfsc	3,2
  3434  0EC7  0008               	return
  3435                           
  3436                           ;Relogio_digital_timer0.c: 290: }
  3437                           ;Relogio_digital_timer0.c: 292: horasAlarme--;
  3438                           
  3439                           ;Relogio_digital_timer0.c: 289: return;
  3440  0EC8  30FF               	movlw	255
  3441  0EC9  07B2               	addwf	_horasAlarme,f
  3442  0ECA  1803               	skipnc
  3443  0ECB  0AB3               	incf	_horasAlarme+1,f
  3444  0ECC  30FF               	movlw	255
  3445  0ECD  07B3               	addwf	_horasAlarme+1,f
  3446                           
  3447                           ;Relogio_digital_timer0.c: 293: return;
  3448  0ECE  0008               	return
  3449  0ECF                     l2564:	
  3450                           
  3451                           ;Relogio_digital_timer0.c: 294: }
  3452                           ;Relogio_digital_timer0.c: 296: if (flagLadoParaEditar == 0) {
  3453  0ECF  0828               	movf	_flagLadoParaEditar,w
  3454  0ED0  0429               	iorwf	_flagLadoParaEditar+1,w
  3455  0ED1  1D03               	btfss	3,2
  3456  0ED2  0008               	return
  3457                           
  3458                           ;Relogio_digital_timer0.c: 297: if (minutosAlarme == 0) {
  3459  0ED3  0834               	movf	_minutosAlarme,w
  3460  0ED4  0435               	iorwf	_minutosAlarme+1,w
  3461  0ED5  1903               	btfsc	3,2
  3462  0ED6  0008               	return
  3463                           
  3464                           ;Relogio_digital_timer0.c: 299: }
  3465                           ;Relogio_digital_timer0.c: 301: minutosAlarme--;
  3466                           
  3467                           ;Relogio_digital_timer0.c: 298: return;
  3468  0ED7  30FF               	movlw	255
  3469  0ED8  07B4               	addwf	_minutosAlarme,f
  3470  0ED9  1803               	skipnc
  3471  0EDA  0AB5               	incf	_minutosAlarme+1,f
  3472  0EDB  30FF               	movlw	255
  3473  0EDC  07B5               	addwf	_minutosAlarme+1,f
  3474                           
  3475                           ;Relogio_digital_timer0.c: 302: return;
  3476  0EDD  0008               	return
  3477  0EDE                     __end_of_diminuirValorDoLadoEscolhidoAlarme:	
  3478                           
  3479                           	psect	text19
  3480  0F79                     __ptext19:	
  3481 ;; *************** function _diminuirValorDoLadoEscolhido *****************
  3482 ;; Defined at:
  3483 ;;		line 235 in file "E:\Google Drive\Sistemas Embarcados\Projeto Relógio\Código MPLAB\Projeto_Relogio\Relogio_digital_t
      +imer0.c"
  3484 ;; Parameters:    Size  Location     Type
  3485 ;;		None
  3486 ;; Auto vars:     Size  Location     Type
  3487 ;;		None
  3488 ;; Return value:  Size  Location     Type
  3489 ;;                  1    wreg      void 
  3490 ;; Registers used:
  3491 ;;		wreg, status,2, status,0
  3492 ;; Tracked objects:
  3493 ;;		On entry : 0/0
  3494 ;;		On exit  : 0/0
  3495 ;;		Unchanged: 0/0
  3496 ;; Data sizes:     COMMON   BANK0   BANK1   BANK3   BANK2
  3497 ;;      Params:         0       0       0       0       0
  3498 ;;      Locals:         0       0       0       0       0
  3499 ;;      Temps:          0       0       0       0       0
  3500 ;;      Totals:         0       0       0       0       0
  3501 ;;Total ram usage:        0 bytes
  3502 ;; Hardware stack levels used:    1
  3503 ;; Hardware stack levels required when called:    2
  3504 ;; This function calls:
  3505 ;;		Nothing
  3506 ;; This function is called by:
  3507 ;;		_executaAcaoSegundoBotao
  3508 ;; This function uses a non-reentrant model
  3509 ;;
  3510                           
  3511                           
  3512                           ;psect for function _diminuirValorDoLadoEscolhido
  3513  0F79                     _diminuirValorDoLadoEscolhido:	
  3514                           
  3515                           ;Relogio_digital_timer0.c: 237: if (flagLadoParaEditar == 1) {
  3516                           
  3517                           ;incstack = 0
  3518                           ; Regs used in _diminuirValorDoLadoEscolhido: [wreg+status,2+status,0]
  3519  0F79  1283               	bcf	3,5	;RP0=0, select bank0
  3520  0F7A  1303               	bcf	3,6	;RP1=0, select bank0
  3521  0F7B  0328               	decf	_flagLadoParaEditar,w
  3522  0F7C  0429               	iorwf	_flagLadoParaEditar+1,w
  3523  0F7D  1D03               	btfss	3,2
  3524  0F7E  2F96               	goto	l2526
  3525                           
  3526                           ;Relogio_digital_timer0.c: 238: if (horas == 0) {
  3527  0F7F  0838               	movf	_horas,w
  3528  0F80  0439               	iorwf	_horas+1,w
  3529  0F81  1D03               	btfss	3,2
  3530  0F82  2F8F               	goto	l2522
  3531                           
  3532                           ;Relogio_digital_timer0.c: 239: if (flagPm == 0) {
  3533  0F83  0822               	movf	_flagPm,w
  3534  0F84  0423               	iorwf	_flagPm+1,w
  3535  0F85  1D03               	btfss	3,2
  3536  0F86  2F8C               	goto	l2518
  3537                           
  3538                           ;Relogio_digital_timer0.c: 240: flagPm = 1;
  3539  0F87  3001               	movlw	1
  3540  0F88  00A2               	movwf	_flagPm
  3541  0F89  3000               	movlw	0
  3542  0F8A  00A3               	movwf	_flagPm+1
  3543                           
  3544                           ;Relogio_digital_timer0.c: 241: } else {
  3545  0F8B  0008               	return
  3546  0F8C                     l2518:	
  3547                           
  3548                           ;Relogio_digital_timer0.c: 242: flagPm = 0;
  3549  0F8C  01A2               	clrf	_flagPm
  3550  0F8D  01A3               	clrf	_flagPm+1
  3551                           
  3552                           ;Relogio_digital_timer0.c: 243: }
  3553                           ;Relogio_digital_timer0.c: 245: return;
  3554  0F8E  0008               	return
  3555  0F8F                     l2522:	
  3556                           
  3557                           ;Relogio_digital_timer0.c: 246: }
  3558                           ;Relogio_digital_timer0.c: 248: horas--;
  3559  0F8F  30FF               	movlw	255
  3560  0F90  07B8               	addwf	_horas,f
  3561  0F91  1803               	skipnc
  3562  0F92  0AB9               	incf	_horas+1,f
  3563  0F93  30FF               	movlw	255
  3564  0F94  07B9               	addwf	_horas+1,f
  3565                           
  3566                           ;Relogio_digital_timer0.c: 249: return;
  3567  0F95  0008               	return
  3568  0F96                     l2526:	
  3569                           
  3570                           ;Relogio_digital_timer0.c: 250: }
  3571                           ;Relogio_digital_timer0.c: 252: if (flagLadoParaEditar == 0) {
  3572  0F96  0828               	movf	_flagLadoParaEditar,w
  3573  0F97  0429               	iorwf	_flagLadoParaEditar+1,w
  3574  0F98  1D03               	btfss	3,2
  3575  0F99  0008               	return
  3576                           
  3577                           ;Relogio_digital_timer0.c: 253: if (minutos == 0) {
  3578  0F9A  083A               	movf	_minutos,w
  3579  0F9B  043B               	iorwf	_minutos+1,w
  3580  0F9C  1903               	btfsc	3,2
  3581  0F9D  0008               	return
  3582                           
  3583                           ;Relogio_digital_timer0.c: 255: }
  3584                           ;Relogio_digital_timer0.c: 257: minutos--;
  3585                           
  3586                           ;Relogio_digital_timer0.c: 254: return;
  3587  0F9E  30FF               	movlw	255
  3588  0F9F  07BA               	addwf	_minutos,f
  3589  0FA0  1803               	skipnc
  3590  0FA1  0ABB               	incf	_minutos+1,f
  3591  0FA2  30FF               	movlw	255
  3592  0FA3  07BB               	addwf	_minutos+1,f
  3593                           
  3594                           ;Relogio_digital_timer0.c: 258: return;
  3595  0FA4  0008               	return
  3596  0FA5                     __end_of_diminuirValorDoLadoEscolhido:	
  3597                           
  3598                           	psect	text20
  3599  0EA4                     __ptext20:	
  3600 ;; *************** function _diminuirOpcaoMenu *****************
  3601 ;; Defined at:
  3602 ;;		line 325 in file "E:\Google Drive\Sistemas Embarcados\Projeto Relógio\Código MPLAB\Projeto_Relogio\Relogio_digital_t
      +imer0.c"
  3603 ;; Parameters:    Size  Location     Type
  3604 ;;		None
  3605 ;; Auto vars:     Size  Location     Type
  3606 ;;		None
  3607 ;; Return value:  Size  Location     Type
  3608 ;;                  1    wreg      void 
  3609 ;; Registers used:
  3610 ;;		wreg, btemp+1
  3611 ;; Tracked objects:
  3612 ;;		On entry : 0/0
  3613 ;;		On exit  : 0/0
  3614 ;;		Unchanged: 0/0
  3615 ;; Data sizes:     COMMON   BANK0   BANK1   BANK3   BANK2
  3616 ;;      Params:         0       0       0       0       0
  3617 ;;      Locals:         0       0       0       0       0
  3618 ;;      Temps:          0       0       0       0       0
  3619 ;;      Totals:         0       0       0       0       0
  3620 ;;Total ram usage:        0 bytes
  3621 ;; Hardware stack levels used:    1
  3622 ;; Hardware stack levels required when called:    2
  3623 ;; This function calls:
  3624 ;;		Nothing
  3625 ;; This function is called by:
  3626 ;;		_executaAcaoSegundoBotao
  3627 ;; This function uses a non-reentrant model
  3628 ;;
  3629                           
  3630                           
  3631                           ;psect for function _diminuirOpcaoMenu
  3632  0EA4                     _diminuirOpcaoMenu:	
  3633                           
  3634                           ;Relogio_digital_timer0.c: 327: escolhaMenu--;
  3635                           
  3636                           ;incstack = 0
  3637                           ; Regs used in _diminuirOpcaoMenu: [wreg+btemp+1]
  3638  0EA4  30FF               	movlw	255
  3639  0EA5  1283               	bcf	3,5	;RP0=0, select bank0
  3640  0EA6  1303               	bcf	3,6	;RP1=0, select bank0
  3641  0EA7  07D5               	addwf	_escolhaMenu,f
  3642  0EA8  1803               	skipnc
  3643  0EA9  0AD6               	incf	_escolhaMenu+1,f
  3644  0EAA  30FF               	movlw	255
  3645  0EAB  07D6               	addwf	_escolhaMenu+1,f
  3646                           
  3647                           ;Relogio_digital_timer0.c: 329: if (escolhaMenu < edicaoHorario) {
  3648  0EAC  0856               	movf	_escolhaMenu+1,w
  3649  0EAD  3A80               	xorlw	128
  3650  0EAE  00FF               	movwf	127
  3651  0EAF  3080               	movlw	128
  3652  0EB0  027F               	subwf	127,w
  3653  0EB1  1D03               	skipz
  3654  0EB2  2EB5               	goto	u2965
  3655  0EB3  3002               	movlw	2
  3656  0EB4  0255               	subwf	_escolhaMenu,w
  3657  0EB5                     u2965:	
  3658  0EB5  1803               	skipnc
  3659  0EB6  0008               	return
  3660                           
  3661                           ;Relogio_digital_timer0.c: 330: escolhaMenu = exibicaoHorario;
  3662  0EB7  3004               	movlw	4
  3663  0EB8  1283               	bcf	3,5	;RP0=0, select bank0
  3664  0EB9  1303               	bcf	3,6	;RP1=0, select bank0
  3665  0EBA  00D5               	movwf	_escolhaMenu
  3666  0EBB  3000               	movlw	0
  3667  0EBC  00D6               	movwf	_escolhaMenu+1
  3668  0EBD  0008               	return
  3669  0EBE                     __end_of_diminuirOpcaoMenu:	
  3670                           
  3671                           	psect	text21
  3672  013C                     __ptext21:	
  3673 ;; *************** function _executaAcaoPrimeiroBotao *****************
  3674 ;; Defined at:
  3675 ;;		line 371 in file "E:\Google Drive\Sistemas Embarcados\Projeto Relógio\Código MPLAB\Projeto_Relogio\Relogio_digital_t
      +imer0.c"
  3676 ;; Parameters:    Size  Location     Type
  3677 ;;		None
  3678 ;; Auto vars:     Size  Location     Type
  3679 ;;  tempoSeguran    2    1[BANK0 ] int 
  3680 ;; Return value:  Size  Location     Type
  3681 ;;                  1    wreg      void 
  3682 ;; Registers used:
  3683 ;;		wreg, status,2, status,0, btemp+1, pclath, cstack
  3684 ;; Tracked objects:
  3685 ;;		On entry : 0/0
  3686 ;;		On exit  : 0/0
  3687 ;;		Unchanged: 0/0
  3688 ;; Data sizes:     COMMON   BANK0   BANK1   BANK3   BANK2
  3689 ;;      Params:         0       0       0       0       0
  3690 ;;      Locals:         0       2       0       0       0
  3691 ;;      Temps:          0       0       0       0       0
  3692 ;;      Totals:         0       2       0       0       0
  3693 ;;Total ram usage:        2 bytes
  3694 ;; Hardware stack levels used:    1
  3695 ;; Hardware stack levels required when called:    3
  3696 ;; This function calls:
  3697 ;;		_aumentarOpcaoMenu
  3698 ;;		_aumentarValorDoLadoEscolhido
  3699 ;;		_aumentarValorDoLadoEscolhidoAlarme
  3700 ;;		_trocaDeLadoEdicao
  3701 ;;		_trocarSubMenuEscolhido
  3702 ;; This function is called by:
  3703 ;;		_main
  3704 ;; This function uses a non-reentrant model
  3705 ;;
  3706                           
  3707                           
  3708                           ;psect for function _executaAcaoPrimeiroBotao
  3709  013C                     _executaAcaoPrimeiroBotao:	
  3710                           
  3711                           ;Relogio_digital_timer0.c: 373: int tempoSegurando = tempoSegurandoPrimeiroBotaoMili;
  3712                           
  3713                           ;incstack = 0
  3714                           ; Regs used in _executaAcaoPrimeiroBotao: [wreg+status,2+status,0+btemp+1+pclath+cstack]
  3715  013C  1283               	bcf	3,5	;RP0=0, select bank0
  3716  013D  1303               	bcf	3,6	;RP1=0, select bank0
  3717  013E  0831               	movf	_tempoSegurandoPrimeiroBotaoMili+1,w
  3718  013F  00C9               	movwf	executaAcaoPrimeiroBotao@tempoSegurando+1
  3719  0140  0830               	movf	_tempoSegurandoPrimeiroBotaoMili,w
  3720  0141  00C8               	movwf	executaAcaoPrimeiroBotao@tempoSegurando
  3721                           
  3722                           ;Relogio_digital_timer0.c: 374: tempoSegurandoPrimeiroBotaoMili = 0;
  3723  0142  01B0               	clrf	_tempoSegurandoPrimeiroBotaoMili
  3724  0143  01B1               	clrf	_tempoSegurandoPrimeiroBotaoMili+1
  3725                           
  3726                           ;Relogio_digital_timer0.c: 376: if (escolhaModo == relogio && tempoSegurando >= 3000) {
  3727  0144  0875               	movf	_escolhaModo,w
  3728  0145  0476               	iorwf	_escolhaModo+1,w
  3729  0146  1D03               	btfss	3,2
  3730  0147  2962               	goto	l2776
  3731  0148  0849               	movf	executaAcaoPrimeiroBotao@tempoSegurando+1,w
  3732  0149  3A80               	xorlw	128
  3733  014A  00FF               	movwf	127
  3734  014B  308B               	movlw	139
  3735  014C  027F               	subwf	127,w
  3736  014D  1D03               	skipz
  3737  014E  2951               	goto	u3135
  3738  014F  30B8               	movlw	184
  3739  0150  0248               	subwf	executaAcaoPrimeiroBotao@tempoSegurando,w
  3740  0151                     u3135:	
  3741  0151  1C03               	skipc
  3742  0152  2962               	goto	l2776
  3743                           
  3744                           ;Relogio_digital_timer0.c: 377: escolhaModo = menu;
  3745  0153  3001               	movlw	1
  3746  0154  00F5               	movwf	_escolhaModo
  3747  0155  3000               	movlw	0
  3748  0156  00F6               	movwf	_escolhaModo+1
  3749                           
  3750                           ;Relogio_digital_timer0.c: 378: flagEditandoUmLado = 0;
  3751  0157  01F7               	clrf	_flagEditandoUmLado
  3752  0158  01F8               	clrf	_flagEditandoUmLado+1
  3753                           
  3754                           ;Relogio_digital_timer0.c: 379: flagLadoParaEditar = 0;
  3755  0159  1283               	bcf	3,5	;RP0=0, select bank0
  3756  015A  1303               	bcf	3,6	;RP1=0, select bank0
  3757  015B  01A8               	clrf	_flagLadoParaEditar
  3758  015C  01A9               	clrf	_flagLadoParaEditar+1
  3759                           
  3760                           ;Relogio_digital_timer0.c: 380: flagLimparTela = 1;
  3761  015D  3001               	movlw	1
  3762  015E  00A4               	movwf	_flagLimparTela
  3763  015F  3000               	movlw	0
  3764  0160  00A5               	movwf	_flagLimparTela+1
  3765                           
  3766                           ;Relogio_digital_timer0.c: 381: return;
  3767  0161  0008               	return
  3768  0162                     l2776:	
  3769                           
  3770                           ;Relogio_digital_timer0.c: 382: }
  3771                           ;Relogio_digital_timer0.c: 384: if (escolhaModo != relogio && tempoSegurando >= 3000) {
  3772  0162  0875               	movf	_escolhaModo,w
  3773  0163  0476               	iorwf	_escolhaModo+1,w
  3774  0164  1903               	btfsc	3,2
  3775  0165  2980               	goto	l2786
  3776  0166  1283               	bcf	3,5	;RP0=0, select bank0
  3777  0167  1303               	bcf	3,6	;RP1=0, select bank0
  3778  0168  0849               	movf	executaAcaoPrimeiroBotao@tempoSegurando+1,w
  3779  0169  3A80               	xorlw	128
  3780  016A  00FF               	movwf	127
  3781  016B  308B               	movlw	139
  3782  016C  027F               	subwf	127,w
  3783  016D  1D03               	skipz
  3784  016E  2971               	goto	u3155
  3785  016F  30B8               	movlw	184
  3786  0170  0248               	subwf	executaAcaoPrimeiroBotao@tempoSegurando,w
  3787  0171                     u3155:	
  3788  0171  1C03               	skipc
  3789  0172  2980               	goto	l2786
  3790                           
  3791                           ;Relogio_digital_timer0.c: 385: escolhaModo = relogio;
  3792  0173  01F5               	clrf	_escolhaModo
  3793  0174  01F6               	clrf	_escolhaModo+1
  3794                           
  3795                           ;Relogio_digital_timer0.c: 386: flagEditandoUmLado = 0;
  3796  0175  01F7               	clrf	_flagEditandoUmLado
  3797  0176  01F8               	clrf	_flagEditandoUmLado+1
  3798                           
  3799                           ;Relogio_digital_timer0.c: 387: flagLadoParaEditar = 0;
  3800  0177  1283               	bcf	3,5	;RP0=0, select bank0
  3801  0178  1303               	bcf	3,6	;RP1=0, select bank0
  3802  0179  01A8               	clrf	_flagLadoParaEditar
  3803  017A  01A9               	clrf	_flagLadoParaEditar+1
  3804                           
  3805                           ;Relogio_digital_timer0.c: 388: flagLimparTela = 1;
  3806  017B  3001               	movlw	1
  3807  017C  00A4               	movwf	_flagLimparTela
  3808  017D  3000               	movlw	0
  3809  017E  00A5               	movwf	_flagLimparTela+1
  3810                           
  3811                           ;Relogio_digital_timer0.c: 389: return;
  3812  017F  0008               	return
  3813  0180                     l2786:	
  3814                           
  3815                           ;Relogio_digital_timer0.c: 390: }
  3816                           ;Relogio_digital_timer0.c: 392: if (escolhaModo == menu && tempoSegurando < 3000) {
  3817  0180  0375               	decf	_escolhaModo,w
  3818  0181  0476               	iorwf	_escolhaModo+1,w
  3819  0182  1D03               	btfss	3,2
  3820  0183  2995               	goto	l2794
  3821  0184  1283               	bcf	3,5	;RP0=0, select bank0
  3822  0185  1303               	bcf	3,6	;RP1=0, select bank0
  3823  0186  0849               	movf	executaAcaoPrimeiroBotao@tempoSegurando+1,w
  3824  0187  3A80               	xorlw	128
  3825  0188  00FF               	movwf	127
  3826  0189  308B               	movlw	139
  3827  018A  027F               	subwf	127,w
  3828  018B  1D03               	skipz
  3829  018C  298F               	goto	u3175
  3830  018D  30B8               	movlw	184
  3831  018E  0248               	subwf	executaAcaoPrimeiroBotao@tempoSegurando,w
  3832  018F                     u3175:	
  3833  018F  1803               	skipnc
  3834  0190  2995               	goto	l2794
  3835                           
  3836                           ;Relogio_digital_timer0.c: 393: aumentarOpcaoMenu();
  3837  0191  120A  158A  268A   	fcall	_aumentarOpcaoMenu
  3838                           
  3839                           ;Relogio_digital_timer0.c: 394: return;
  3840  0194  0008               	return
  3841  0195                     l2794:	
  3842                           
  3843                           ;Relogio_digital_timer0.c: 395: }
  3844                           ;Relogio_digital_timer0.c: 397: if ((escolhaModo == edicaoHorario || escolhaModo == alar
      +                          me) && flagEditandoUmLado == 0 && tempoSegurando < 3000) {
  3845  0195  3002               	movlw	2
  3846  0196  0675               	xorwf	_escolhaModo,w
  3847  0197  0476               	iorwf	_escolhaModo+1,w
  3848  0198  1903               	btfsc	3,2
  3849  0199  299F               	goto	l2798
  3850  019A  3003               	movlw	3
  3851  019B  0675               	xorwf	_escolhaModo,w
  3852  019C  0476               	iorwf	_escolhaModo+1,w
  3853  019D  1D03               	btfss	3,2
  3854  019E  29B4               	goto	l2806
  3855  019F                     l2798:	
  3856  019F  0877               	movf	_flagEditandoUmLado,w
  3857  01A0  0478               	iorwf	_flagEditandoUmLado+1,w
  3858  01A1  1D03               	btfss	3,2
  3859  01A2  29B4               	goto	l2806
  3860  01A3  1283               	bcf	3,5	;RP0=0, select bank0
  3861  01A4  1303               	bcf	3,6	;RP1=0, select bank0
  3862  01A5  0849               	movf	executaAcaoPrimeiroBotao@tempoSegurando+1,w
  3863  01A6  3A80               	xorlw	128
  3864  01A7  00FF               	movwf	127
  3865  01A8  308B               	movlw	139
  3866  01A9  027F               	subwf	127,w
  3867  01AA  1D03               	skipz
  3868  01AB  29AE               	goto	u3215
  3869  01AC  30B8               	movlw	184
  3870  01AD  0248               	subwf	executaAcaoPrimeiroBotao@tempoSegurando,w
  3871  01AE                     u3215:	
  3872  01AE  1803               	skipnc
  3873  01AF  29B4               	goto	l2806
  3874                           
  3875                           ;Relogio_digital_timer0.c: 398: trocaDeLadoEdicao();
  3876  01B0  120A  158A  2643   	fcall	_trocaDeLadoEdicao
  3877                           
  3878                           ;Relogio_digital_timer0.c: 399: return;
  3879  01B3  0008               	return
  3880  01B4                     l2806:	
  3881                           
  3882                           ;Relogio_digital_timer0.c: 400: }
  3883                           ;Relogio_digital_timer0.c: 402: if (escolhaModo == edicaoHorario && flagEditandoUmLado =
      +                          = 1 && tempoSegurando < 3000) {
  3884  01B4  3002               	movlw	2
  3885  01B5  0675               	xorwf	_escolhaModo,w
  3886  01B6  0476               	iorwf	_escolhaModo+1,w
  3887  01B7  1D03               	btfss	3,2
  3888  01B8  29CE               	goto	l2816
  3889  01B9  0377               	decf	_flagEditandoUmLado,w
  3890  01BA  0478               	iorwf	_flagEditandoUmLado+1,w
  3891  01BB  1D03               	btfss	3,2
  3892  01BC  29CE               	goto	l2816
  3893  01BD  1283               	bcf	3,5	;RP0=0, select bank0
  3894  01BE  1303               	bcf	3,6	;RP1=0, select bank0
  3895  01BF  0849               	movf	executaAcaoPrimeiroBotao@tempoSegurando+1,w
  3896  01C0  3A80               	xorlw	128
  3897  01C1  00FF               	movwf	127
  3898  01C2  308B               	movlw	139
  3899  01C3  027F               	subwf	127,w
  3900  01C4  1D03               	skipz
  3901  01C5  29C8               	goto	u3245
  3902  01C6  30B8               	movlw	184
  3903  01C7  0248               	subwf	executaAcaoPrimeiroBotao@tempoSegurando,w
  3904  01C8                     u3245:	
  3905  01C8  1803               	skipnc
  3906  01C9  29CE               	goto	l2816
  3907                           
  3908                           ;Relogio_digital_timer0.c: 403: aumentarValorDoLadoEscolhido();
  3909  01CA  120A  118A  23AF   	fcall	_aumentarValorDoLadoEscolhido
  3910                           
  3911                           ;Relogio_digital_timer0.c: 404: return;
  3912  01CD  0008               	return
  3913  01CE                     l2816:	
  3914                           
  3915                           ;Relogio_digital_timer0.c: 405: }
  3916                           ;Relogio_digital_timer0.c: 407: if (escolhaModo == alarme && flagEditandoUmLado == 1 && 
      +                          tempoSegurando < 3000) {
  3917  01CE  3003               	movlw	3
  3918  01CF  0675               	xorwf	_escolhaModo,w
  3919  01D0  0476               	iorwf	_escolhaModo+1,w
  3920  01D1  1D03               	btfss	3,2
  3921  01D2  29E8               	goto	l2826
  3922  01D3  0377               	decf	_flagEditandoUmLado,w
  3923  01D4  0478               	iorwf	_flagEditandoUmLado+1,w
  3924  01D5  1D03               	btfss	3,2
  3925  01D6  29E8               	goto	l2826
  3926  01D7  1283               	bcf	3,5	;RP0=0, select bank0
  3927  01D8  1303               	bcf	3,6	;RP1=0, select bank0
  3928  01D9  0849               	movf	executaAcaoPrimeiroBotao@tempoSegurando+1,w
  3929  01DA  3A80               	xorlw	128
  3930  01DB  00FF               	movwf	127
  3931  01DC  308B               	movlw	139
  3932  01DD  027F               	subwf	127,w
  3933  01DE  1D03               	skipz
  3934  01DF  29E2               	goto	u3275
  3935  01E0  30B8               	movlw	184
  3936  01E1  0248               	subwf	executaAcaoPrimeiroBotao@tempoSegurando,w
  3937  01E2                     u3275:	
  3938  01E2  1803               	skipnc
  3939  01E3  29E8               	goto	l2826
  3940                           
  3941                           ;Relogio_digital_timer0.c: 408: aumentarValorDoLadoEscolhidoAlarme();
  3942  01E4  120A  158A  27D1   	fcall	_aumentarValorDoLadoEscolhidoAlarme
  3943                           
  3944                           ;Relogio_digital_timer0.c: 409: return;
  3945  01E7  0008               	return
  3946  01E8                     l2826:	
  3947                           
  3948                           ;Relogio_digital_timer0.c: 410: }
  3949                           ;Relogio_digital_timer0.c: 412: if (escolhaModo == exibicaoHorario && tempoSegurando < 3
      +                          000) {
  3950  01E8  3004               	movlw	4
  3951  01E9  0675               	xorwf	_escolhaModo,w
  3952  01EA  0476               	iorwf	_escolhaModo+1,w
  3953  01EB  1D03               	btfss	3,2
  3954  01EC  0008               	return
  3955  01ED  1283               	bcf	3,5	;RP0=0, select bank0
  3956  01EE  1303               	bcf	3,6	;RP1=0, select bank0
  3957  01EF  0849               	movf	executaAcaoPrimeiroBotao@tempoSegurando+1,w
  3958  01F0  3A80               	xorlw	128
  3959  01F1  00FF               	movwf	127
  3960  01F2  308B               	movlw	139
  3961  01F3  027F               	subwf	127,w
  3962  01F4  1D03               	skipz
  3963  01F5  29F8               	goto	u3295
  3964  01F6  30B8               	movlw	184
  3965  01F7  0248               	subwf	executaAcaoPrimeiroBotao@tempoSegurando,w
  3966  01F8                     u3295:	
  3967  01F8  1803               	skipnc
  3968  01F9  0008               	return
  3969                           
  3970                           ;Relogio_digital_timer0.c: 413: trocarSubMenuEscolhido();
  3971  01FA  120A  158A  2651   	fcall	_trocarSubMenuEscolhido
  3972                           
  3973                           ;Relogio_digital_timer0.c: 414: return;
  3974  01FD  0008               	return
  3975  01FE                     __end_of_executaAcaoPrimeiroBotao:	
  3976                           
  3977                           	psect	text22
  3978  0E51                     __ptext22:	
  3979 ;; *************** function _trocarSubMenuEscolhido *****************
  3980 ;; Defined at:
  3981 ;;		line 334 in file "E:\Google Drive\Sistemas Embarcados\Projeto Relógio\Código MPLAB\Projeto_Relogio\Relogio_digital_t
      +imer0.c"
  3982 ;; Parameters:    Size  Location     Type
  3983 ;;		None
  3984 ;; Auto vars:     Size  Location     Type
  3985 ;;		None
  3986 ;; Return value:  Size  Location     Type
  3987 ;;                  1    wreg      void 
  3988 ;; Registers used:
  3989 ;;		wreg, status,2, status,0
  3990 ;; Tracked objects:
  3991 ;;		On entry : 0/0
  3992 ;;		On exit  : 0/0
  3993 ;;		Unchanged: 0/0
  3994 ;; Data sizes:     COMMON   BANK0   BANK1   BANK3   BANK2
  3995 ;;      Params:         0       0       0       0       0
  3996 ;;      Locals:         0       0       0       0       0
  3997 ;;      Temps:          0       0       0       0       0
  3998 ;;      Totals:         0       0       0       0       0
  3999 ;;Total ram usage:        0 bytes
  4000 ;; Hardware stack levels used:    1
  4001 ;; Hardware stack levels required when called:    2
  4002 ;; This function calls:
  4003 ;;		Nothing
  4004 ;; This function is called by:
  4005 ;;		_executaAcaoPrimeiroBotao
  4006 ;;		_executaAcaoSegundoBotao
  4007 ;; This function uses a non-reentrant model
  4008 ;;
  4009                           
  4010                           
  4011                           ;psect for function _trocarSubMenuEscolhido
  4012  0E51                     _trocarSubMenuEscolhido:	
  4013                           
  4014                           ;Relogio_digital_timer0.c: 336: if (escolhaSubMenu == 0) {
  4015                           
  4016                           ;incstack = 0
  4017                           ; Regs used in _trocarSubMenuEscolhido: [wreg+status,2+status,0]
  4018  0E51  1283               	bcf	3,5	;RP0=0, select bank0
  4019  0E52  1303               	bcf	3,6	;RP1=0, select bank0
  4020  0E53  0820               	movf	_escolhaSubMenu,w
  4021  0E54  0421               	iorwf	_escolhaSubMenu+1,w
  4022  0E55  1D03               	btfss	3,2
  4023  0E56  2E5C               	goto	l2600
  4024                           
  4025                           ;Relogio_digital_timer0.c: 337: escolhaSubMenu = 1;
  4026  0E57  3001               	movlw	1
  4027  0E58  00A0               	movwf	_escolhaSubMenu
  4028  0E59  3000               	movlw	0
  4029  0E5A  00A1               	movwf	_escolhaSubMenu+1
  4030                           
  4031                           ;Relogio_digital_timer0.c: 338: return;
  4032  0E5B  0008               	return
  4033  0E5C                     l2600:	
  4034                           
  4035                           ;Relogio_digital_timer0.c: 339: }
  4036                           ;Relogio_digital_timer0.c: 341: escolhaSubMenu = 0;
  4037  0E5C  01A0               	clrf	_escolhaSubMenu
  4038  0E5D  01A1               	clrf	_escolhaSubMenu+1
  4039  0E5E  0008               	return
  4040  0E5F                     __end_of_trocarSubMenuEscolhido:	
  4041                           ;Relogio_digital_timer0.c: 342: return;
  4042                           
  4043                           
  4044                           	psect	text23
  4045  0E43                     __ptext23:	
  4046 ;; *************** function _trocaDeLadoEdicao *****************
  4047 ;; Defined at:
  4048 ;;		line 306 in file "E:\Google Drive\Sistemas Embarcados\Projeto Relógio\Código MPLAB\Projeto_Relogio\Relogio_digital_t
      +imer0.c"
  4049 ;; Parameters:    Size  Location     Type
  4050 ;;		None
  4051 ;; Auto vars:     Size  Location     Type
  4052 ;;		None
  4053 ;; Return value:  Size  Location     Type
  4054 ;;                  1    wreg      void 
  4055 ;; Registers used:
  4056 ;;		wreg, status,2, status,0
  4057 ;; Tracked objects:
  4058 ;;		On entry : 0/0
  4059 ;;		On exit  : 0/0
  4060 ;;		Unchanged: 0/0
  4061 ;; Data sizes:     COMMON   BANK0   BANK1   BANK3   BANK2
  4062 ;;      Params:         0       0       0       0       0
  4063 ;;      Locals:         0       0       0       0       0
  4064 ;;      Temps:          0       0       0       0       0
  4065 ;;      Totals:         0       0       0       0       0
  4066 ;;Total ram usage:        0 bytes
  4067 ;; Hardware stack levels used:    1
  4068 ;; Hardware stack levels required when called:    2
  4069 ;; This function calls:
  4070 ;;		Nothing
  4071 ;; This function is called by:
  4072 ;;		_executaAcaoPrimeiroBotao
  4073 ;;		_executaAcaoSegundoBotao
  4074 ;; This function uses a non-reentrant model
  4075 ;;
  4076                           
  4077                           
  4078                           ;psect for function _trocaDeLadoEdicao
  4079  0E43                     _trocaDeLadoEdicao:	
  4080                           
  4081                           ;Relogio_digital_timer0.c: 308: if (flagLadoParaEditar == 0) {
  4082                           
  4083                           ;incstack = 0
  4084                           ; Regs used in _trocaDeLadoEdicao: [wreg+status,2+status,0]
  4085  0E43  1283               	bcf	3,5	;RP0=0, select bank0
  4086  0E44  1303               	bcf	3,6	;RP1=0, select bank0
  4087  0E45  0828               	movf	_flagLadoParaEditar,w
  4088  0E46  0429               	iorwf	_flagLadoParaEditar+1,w
  4089  0E47  1D03               	btfss	3,2
  4090  0E48  2E4E               	goto	l2580
  4091                           
  4092                           ;Relogio_digital_timer0.c: 309: flagLadoParaEditar = 1;
  4093  0E49  3001               	movlw	1
  4094  0E4A  00A8               	movwf	_flagLadoParaEditar
  4095  0E4B  3000               	movlw	0
  4096  0E4C  00A9               	movwf	_flagLadoParaEditar+1
  4097                           
  4098                           ;Relogio_digital_timer0.c: 310: return;
  4099  0E4D  0008               	return
  4100  0E4E                     l2580:	
  4101                           
  4102                           ;Relogio_digital_timer0.c: 311: }
  4103                           ;Relogio_digital_timer0.c: 313: flagLadoParaEditar = 0;
  4104  0E4E  01A8               	clrf	_flagLadoParaEditar
  4105  0E4F  01A9               	clrf	_flagLadoParaEditar+1
  4106  0E50  0008               	return
  4107  0E51                     __end_of_trocaDeLadoEdicao:	
  4108                           
  4109                           	psect	text24
  4110  0FD1                     __ptext24:	
  4111 ;; *************** function _aumentarValorDoLadoEscolhidoAlarme *****************
  4112 ;; Defined at:
  4113 ;;		line 262 in file "E:\Google Drive\Sistemas Embarcados\Projeto Relógio\Código MPLAB\Projeto_Relogio\Relogio_digital_t
      +imer0.c"
  4114 ;; Parameters:    Size  Location     Type
  4115 ;;		None
  4116 ;; Auto vars:     Size  Location     Type
  4117 ;;		None
  4118 ;; Return value:  Size  Location     Type
  4119 ;;                  1    wreg      void 
  4120 ;; Registers used:
  4121 ;;		wreg, status,2, status,0
  4122 ;; Tracked objects:
  4123 ;;		On entry : 0/0
  4124 ;;		On exit  : 0/0
  4125 ;;		Unchanged: 0/0
  4126 ;; Data sizes:     COMMON   BANK0   BANK1   BANK3   BANK2
  4127 ;;      Params:         0       0       0       0       0
  4128 ;;      Locals:         0       0       0       0       0
  4129 ;;      Temps:          0       1       0       0       0
  4130 ;;      Totals:         0       1       0       0       0
  4131 ;;Total ram usage:        1 bytes
  4132 ;; Hardware stack levels used:    1
  4133 ;; Hardware stack levels required when called:    2
  4134 ;; This function calls:
  4135 ;;		Nothing
  4136 ;; This function is called by:
  4137 ;;		_executaAcaoPrimeiroBotao
  4138 ;; This function uses a non-reentrant model
  4139 ;;
  4140                           
  4141                           
  4142                           ;psect for function _aumentarValorDoLadoEscolhidoAlarme
  4143  0FD1                     _aumentarValorDoLadoEscolhidoAlarme:	
  4144                           
  4145                           ;Relogio_digital_timer0.c: 264: if (flagLadoParaEditar == 1) {
  4146                           
  4147                           ;incstack = 0
  4148                           ; Regs used in _aumentarValorDoLadoEscolhidoAlarme: [wreg+status,2+status,0]
  4149  0FD1  1283               	bcf	3,5	;RP0=0, select bank0
  4150  0FD2  1303               	bcf	3,6	;RP1=0, select bank0
  4151  0FD3  0328               	decf	_flagLadoParaEditar,w
  4152  0FD4  0429               	iorwf	_flagLadoParaEditar+1,w
  4153  0FD5  1D03               	btfss	3,2
  4154  0FD6  2FEE               	goto	l2544
  4155                           
  4156                           ;Relogio_digital_timer0.c: 265: horasAlarme++;
  4157  0FD7  3001               	movlw	1
  4158  0FD8  07B2               	addwf	_horasAlarme,f
  4159  0FD9  1803               	skipnc
  4160  0FDA  0AB3               	incf	_horasAlarme+1,f
  4161  0FDB  3000               	movlw	0
  4162  0FDC  07B3               	addwf	_horasAlarme+1,f
  4163                           
  4164                           ;Relogio_digital_timer0.c: 267: if (horasAlarme >= limiteHorario) {
  4165  0FDD  0833               	movf	_horasAlarme+1,w
  4166  0FDE  3A80               	xorlw	128
  4167  0FDF  00C7               	movwf	??_aumentarValorDoLadoEscolhidoAlarme
  4168  0FE0  0858               	movf	_limiteHorario+1,w
  4169  0FE1  3A80               	xorlw	128
  4170  0FE2  0247               	subwf	??_aumentarValorDoLadoEscolhidoAlarme,w
  4171  0FE3  1D03               	skipz
  4172  0FE4  2FE7               	goto	u2875
  4173  0FE5  0857               	movf	_limiteHorario,w
  4174  0FE6  0232               	subwf	_horasAlarme,w
  4175  0FE7                     u2875:	
  4176  0FE7  1C03               	skipc
  4177  0FE8  0008               	return
  4178                           
  4179                           ;Relogio_digital_timer0.c: 268: horasAlarme = 0;
  4180  0FE9  1283               	bcf	3,5	;RP0=0, select bank0
  4181  0FEA  1303               	bcf	3,6	;RP1=0, select bank0
  4182  0FEB  01B2               	clrf	_horasAlarme
  4183  0FEC  01B3               	clrf	_horasAlarme+1
  4184                           
  4185                           ;Relogio_digital_timer0.c: 269: }
  4186                           ;Relogio_digital_timer0.c: 271: return;
  4187  0FED  0008               	return
  4188  0FEE                     l2544:	
  4189                           
  4190                           ;Relogio_digital_timer0.c: 272: }
  4191                           ;Relogio_digital_timer0.c: 274: if (flagLadoParaEditar == 0) {
  4192  0FEE  0828               	movf	_flagLadoParaEditar,w
  4193  0FEF  0429               	iorwf	_flagLadoParaEditar+1,w
  4194  0FF0  1D03               	btfss	3,2
  4195  0FF1  0008               	return
  4196                           
  4197                           ;Relogio_digital_timer0.c: 275: minutosAlarme++;
  4198  0FF2  3001               	movlw	1
  4199  0FF3  07B4               	addwf	_minutosAlarme,f
  4200  0FF4  1803               	skipnc
  4201  0FF5  0AB5               	incf	_minutosAlarme+1,f
  4202  0FF6  3000               	movlw	0
  4203  0FF7  07B5               	addwf	_minutosAlarme+1,f
  4204                           
  4205                           ;Relogio_digital_timer0.c: 277: if (minutosAlarme == 60) {
  4206  0FF8  303C               	movlw	60
  4207  0FF9  0634               	xorwf	_minutosAlarme,w
  4208  0FFA  0435               	iorwf	_minutosAlarme+1,w
  4209  0FFB  1D03               	btfss	3,2
  4210  0FFC  0008               	return
  4211                           
  4212                           ;Relogio_digital_timer0.c: 278: minutosAlarme = 0;
  4213  0FFD  01B4               	clrf	_minutosAlarme
  4214  0FFE  01B5               	clrf	_minutosAlarme+1
  4215                           
  4216                           ;Relogio_digital_timer0.c: 279: }
  4217                           ;Relogio_digital_timer0.c: 281: return;
  4218  0FFF  0008               	return
  4219  1000                     __end_of_aumentarValorDoLadoEscolhidoAlarme:	
  4220                           
  4221                           	psect	text25
  4222  03AF                     __ptext25:	
  4223 ;; *************** function _aumentarValorDoLadoEscolhido *****************
  4224 ;; Defined at:
  4225 ;;		line 206 in file "E:\Google Drive\Sistemas Embarcados\Projeto Relógio\Código MPLAB\Projeto_Relogio\Relogio_digital_t
      +imer0.c"
  4226 ;; Parameters:    Size  Location     Type
  4227 ;;		None
  4228 ;; Auto vars:     Size  Location     Type
  4229 ;;		None
  4230 ;; Return value:  Size  Location     Type
  4231 ;;                  1    wreg      void 
  4232 ;; Registers used:
  4233 ;;		wreg, status,2, status,0
  4234 ;; Tracked objects:
  4235 ;;		On entry : 0/0
  4236 ;;		On exit  : 0/0
  4237 ;;		Unchanged: 0/0
  4238 ;; Data sizes:     COMMON   BANK0   BANK1   BANK3   BANK2
  4239 ;;      Params:         0       0       0       0       0
  4240 ;;      Locals:         0       0       0       0       0
  4241 ;;      Temps:          0       1       0       0       0
  4242 ;;      Totals:         0       1       0       0       0
  4243 ;;Total ram usage:        1 bytes
  4244 ;; Hardware stack levels used:    1
  4245 ;; Hardware stack levels required when called:    2
  4246 ;; This function calls:
  4247 ;;		Nothing
  4248 ;; This function is called by:
  4249 ;;		_executaAcaoPrimeiroBotao
  4250 ;; This function uses a non-reentrant model
  4251 ;;
  4252                           
  4253                           
  4254                           ;psect for function _aumentarValorDoLadoEscolhido
  4255  03AF                     _aumentarValorDoLadoEscolhido:	
  4256                           
  4257                           ;Relogio_digital_timer0.c: 208: if (flagLadoParaEditar == 1) {
  4258                           
  4259                           ;incstack = 0
  4260                           ; Regs used in _aumentarValorDoLadoEscolhido: [wreg+status,2+status,0]
  4261  03AF  1283               	bcf	3,5	;RP0=0, select bank0
  4262  03B0  1303               	bcf	3,6	;RP1=0, select bank0
  4263  03B1  0328               	decf	_flagLadoParaEditar,w
  4264  03B2  0429               	iorwf	_flagLadoParaEditar+1,w
  4265  03B3  1D03               	btfss	3,2
  4266  03B4  2BD7               	goto	l2500
  4267                           
  4268                           ;Relogio_digital_timer0.c: 209: horas++;
  4269  03B5  3001               	movlw	1
  4270  03B6  07B8               	addwf	_horas,f
  4271  03B7  1803               	skipnc
  4272  03B8  0AB9               	incf	_horas+1,f
  4273  03B9  3000               	movlw	0
  4274  03BA  07B9               	addwf	_horas+1,f
  4275                           
  4276                           ;Relogio_digital_timer0.c: 211: if (horas >= limiteHorario) {
  4277  03BB  0839               	movf	_horas+1,w
  4278  03BC  3A80               	xorlw	128
  4279  03BD  00C7               	movwf	??_aumentarValorDoLadoEscolhido
  4280  03BE  0858               	movf	_limiteHorario+1,w
  4281  03BF  3A80               	xorlw	128
  4282  03C0  0247               	subwf	??_aumentarValorDoLadoEscolhido,w
  4283  03C1  1D03               	skipz
  4284  03C2  2BC5               	goto	u2775
  4285  03C3  0857               	movf	_limiteHorario,w
  4286  03C4  0238               	subwf	_horas,w
  4287  03C5                     u2775:	
  4288  03C5  1C03               	skipc
  4289  03C6  0008               	return
  4290                           
  4291                           ;Relogio_digital_timer0.c: 212: if (flagPm == 0) {
  4292  03C7  1283               	bcf	3,5	;RP0=0, select bank0
  4293  03C8  1303               	bcf	3,6	;RP1=0, select bank0
  4294  03C9  0822               	movf	_flagPm,w
  4295  03CA  0423               	iorwf	_flagPm+1,w
  4296  03CB  1D03               	btfss	3,2
  4297  03CC  2BD2               	goto	l2496
  4298                           
  4299                           ;Relogio_digital_timer0.c: 213: flagPm = 1;
  4300  03CD  3001               	movlw	1
  4301  03CE  00A2               	movwf	_flagPm
  4302  03CF  3000               	movlw	0
  4303  03D0  00A3               	movwf	_flagPm+1
  4304                           
  4305                           ;Relogio_digital_timer0.c: 214: } else {
  4306  03D1  2BD4               	goto	l118
  4307  03D2                     l2496:	
  4308                           
  4309                           ;Relogio_digital_timer0.c: 215: flagPm = 0;
  4310  03D2  01A2               	clrf	_flagPm
  4311  03D3  01A3               	clrf	_flagPm+1
  4312  03D4                     l118:	
  4313                           
  4314                           ;Relogio_digital_timer0.c: 216: }
  4315                           ;Relogio_digital_timer0.c: 218: horas = 0;
  4316  03D4  01B8               	clrf	_horas
  4317  03D5  01B9               	clrf	_horas+1
  4318                           
  4319                           ;Relogio_digital_timer0.c: 219: }
  4320                           ;Relogio_digital_timer0.c: 221: return;
  4321  03D6  0008               	return
  4322  03D7                     l2500:	
  4323                           
  4324                           ;Relogio_digital_timer0.c: 222: }
  4325                           ;Relogio_digital_timer0.c: 224: if (flagLadoParaEditar == 0) {
  4326  03D7  0828               	movf	_flagLadoParaEditar,w
  4327  03D8  0429               	iorwf	_flagLadoParaEditar+1,w
  4328  03D9  1D03               	btfss	3,2
  4329  03DA  0008               	return
  4330                           
  4331                           ;Relogio_digital_timer0.c: 225: minutos++;
  4332  03DB  3001               	movlw	1
  4333  03DC  07BA               	addwf	_minutos,f
  4334  03DD  1803               	skipnc
  4335  03DE  0ABB               	incf	_minutos+1,f
  4336  03DF  3000               	movlw	0
  4337  03E0  07BB               	addwf	_minutos+1,f
  4338                           
  4339                           ;Relogio_digital_timer0.c: 227: if (minutos == 60) {
  4340  03E1  303C               	movlw	60
  4341  03E2  063A               	xorwf	_minutos,w
  4342  03E3  043B               	iorwf	_minutos+1,w
  4343  03E4  1D03               	btfss	3,2
  4344  03E5  0008               	return
  4345                           
  4346                           ;Relogio_digital_timer0.c: 228: minutos = 0;
  4347  03E6  01BA               	clrf	_minutos
  4348  03E7  01BB               	clrf	_minutos+1
  4349                           
  4350                           ;Relogio_digital_timer0.c: 229: }
  4351                           ;Relogio_digital_timer0.c: 231: return;
  4352  03E8  0008               	return
  4353  03E9                     __end_of_aumentarValorDoLadoEscolhido:	
  4354                           
  4355                           	psect	text26
  4356  0E8A                     __ptext26:	
  4357 ;; *************** function _aumentarOpcaoMenu *****************
  4358 ;; Defined at:
  4359 ;;		line 316 in file "E:\Google Drive\Sistemas Embarcados\Projeto Relógio\Código MPLAB\Projeto_Relogio\Relogio_digital_t
      +imer0.c"
  4360 ;; Parameters:    Size  Location     Type
  4361 ;;		None
  4362 ;; Auto vars:     Size  Location     Type
  4363 ;;		None
  4364 ;; Return value:  Size  Location     Type
  4365 ;;                  1    wreg      void 
  4366 ;; Registers used:
  4367 ;;		wreg, btemp+1
  4368 ;; Tracked objects:
  4369 ;;		On entry : 0/0
  4370 ;;		On exit  : 0/0
  4371 ;;		Unchanged: 0/0
  4372 ;; Data sizes:     COMMON   BANK0   BANK1   BANK3   BANK2
  4373 ;;      Params:         0       0       0       0       0
  4374 ;;      Locals:         0       0       0       0       0
  4375 ;;      Temps:          0       0       0       0       0
  4376 ;;      Totals:         0       0       0       0       0
  4377 ;;Total ram usage:        0 bytes
  4378 ;; Hardware stack levels used:    1
  4379 ;; Hardware stack levels required when called:    2
  4380 ;; This function calls:
  4381 ;;		Nothing
  4382 ;; This function is called by:
  4383 ;;		_executaAcaoPrimeiroBotao
  4384 ;; This function uses a non-reentrant model
  4385 ;;
  4386                           
  4387                           
  4388                           ;psect for function _aumentarOpcaoMenu
  4389  0E8A                     _aumentarOpcaoMenu:	
  4390                           
  4391                           ;Relogio_digital_timer0.c: 318: escolhaMenu++;
  4392                           
  4393                           ;incstack = 0
  4394                           ; Regs used in _aumentarOpcaoMenu: [wreg+btemp+1]
  4395  0E8A  3001               	movlw	1
  4396  0E8B  1283               	bcf	3,5	;RP0=0, select bank0
  4397  0E8C  1303               	bcf	3,6	;RP1=0, select bank0
  4398  0E8D  07D5               	addwf	_escolhaMenu,f
  4399  0E8E  1803               	skipnc
  4400  0E8F  0AD6               	incf	_escolhaMenu+1,f
  4401  0E90  3000               	movlw	0
  4402  0E91  07D6               	addwf	_escolhaMenu+1,f
  4403                           
  4404                           ;Relogio_digital_timer0.c: 320: if (escolhaMenu > exibicaoHorario) {
  4405  0E92  0856               	movf	_escolhaMenu+1,w
  4406  0E93  3A80               	xorlw	128
  4407  0E94  00FF               	movwf	127
  4408  0E95  3080               	movlw	128
  4409  0E96  027F               	subwf	127,w
  4410  0E97  1D03               	skipz
  4411  0E98  2E9B               	goto	u2955
  4412  0E99  3005               	movlw	5
  4413  0E9A  0255               	subwf	_escolhaMenu,w
  4414  0E9B                     u2955:	
  4415  0E9B  1C03               	skipc
  4416  0E9C  0008               	return
  4417                           
  4418                           ;Relogio_digital_timer0.c: 321: escolhaMenu = edicaoHorario;
  4419  0E9D  3002               	movlw	2
  4420  0E9E  1283               	bcf	3,5	;RP0=0, select bank0
  4421  0E9F  1303               	bcf	3,6	;RP1=0, select bank0
  4422  0EA0  00D5               	movwf	_escolhaMenu
  4423  0EA1  3000               	movlw	0
  4424  0EA2  00D6               	movwf	_escolhaMenu+1
  4425  0EA3  0008               	return
  4426  0EA4                     __end_of_aumentarOpcaoMenu:	
  4427                           
  4428                           	psect	text27
  4429  05A8                     __ptext27:	
  4430 ;; *************** function _LCD_Init *****************
  4431 ;; Defined at:
  4432 ;;		line 119 in file "E:\Google Drive\Sistemas Embarcados\Projeto Relógio\Código MPLAB\Projeto_Relogio\Relogio_digital_t
      +imer0.c"
  4433 ;; Parameters:    Size  Location     Type
  4434 ;;		None
  4435 ;; Auto vars:     Size  Location     Type
  4436 ;;		None
  4437 ;; Return value:  Size  Location     Type
  4438 ;;                  1    wreg      void 
  4439 ;; Registers used:
  4440 ;;		wreg, status,2, status,0, pclath, cstack
  4441 ;; Tracked objects:
  4442 ;;		On entry : 0/0
  4443 ;;		On exit  : 0/0
  4444 ;;		Unchanged: 0/0
  4445 ;; Data sizes:     COMMON   BANK0   BANK1   BANK3   BANK2
  4446 ;;      Params:         0       0       0       0       0
  4447 ;;      Locals:         0       0       0       0       0
  4448 ;;      Temps:          0       2       0       0       0
  4449 ;;      Totals:         0       2       0       0       0
  4450 ;;Total ram usage:        2 bytes
  4451 ;; Hardware stack levels used:    1
  4452 ;; Hardware stack levels required when called:    3
  4453 ;; This function calls:
  4454 ;;		_LCD_WriteCmd
  4455 ;; This function is called by:
  4456 ;;		_main
  4457 ;; This function uses a non-reentrant model
  4458 ;;
  4459                           
  4460                           
  4461                           ;psect for function _LCD_Init
  4462  05A8                     _LCD_Init:	
  4463                           
  4464                           ;Relogio_digital_timer0.c: 122: ADCON1bits.PCFG3 = 0;
  4465                           
  4466                           ;incstack = 0
  4467                           ; Regs used in _LCD_Init: [wreg+status,2+status,0+pclath+cstack]
  4468  05A8  1683               	bsf	3,5	;RP0=1, select bank1
  4469  05A9  1303               	bcf	3,6	;RP1=0, select bank1
  4470  05AA  119F               	bcf	31,3	;volatile
  4471                           
  4472                           ;Relogio_digital_timer0.c: 123: ADCON1bits.PCFG2 = 1;
  4473  05AB  151F               	bsf	31,2	;volatile
  4474                           
  4475                           ;Relogio_digital_timer0.c: 124: ADCON1bits.PCFG1 = 0;
  4476  05AC  109F               	bcf	31,1	;volatile
  4477                           
  4478                           ;Relogio_digital_timer0.c: 125: ADCON1bits.PCFG0 = 0;
  4479  05AD  101F               	bcf	31,0	;volatile
  4480                           
  4481                           ;Relogio_digital_timer0.c: 127: _delay((unsigned long)((15)*(18432000/4000.0)));
  4482  05AE  305A               	movlw	90
  4483  05AF  1283               	bcf	3,5	;RP0=0, select bank0
  4484  05B0  1303               	bcf	3,6	;RP1=0, select bank0
  4485  05B1  00CA               	movwf	??_LCD_Init+1
  4486  05B2  30C2               	movlw	194
  4487  05B3  00C9               	movwf	??_LCD_Init
  4488  05B4                     u3717:	
  4489  05B4  0BC9               	decfsz	??_LCD_Init,f
  4490  05B5  2DB4               	goto	u3717
  4491  05B6  0BCA               	decfsz	??_LCD_Init+1,f
  4492  05B7  2DB4               	goto	u3717
  4493  05B8  0000               	nop
  4494                           
  4495                           ;Relogio_digital_timer0.c: 129: LCD_WriteCmd(0x30);
  4496  05B9  3030               	movlw	48
  4497  05BA  120A  158A  265F  120A  118A  	fcall	_LCD_WriteCmd
  4498                           
  4499                           ;Relogio_digital_timer0.c: 130: _delay((unsigned long)((4)*(18432000/4000.0)));
  4500  05BF  3018               	movlw	24
  4501  05C0  1283               	bcf	3,5	;RP0=0, select bank0
  4502  05C1  1303               	bcf	3,6	;RP1=0, select bank0
  4503  05C2  00CA               	movwf	??_LCD_Init+1
  4504  05C3  30EE               	movlw	238
  4505  05C4  00C9               	movwf	??_LCD_Init
  4506  05C5                     u3727:	
  4507  05C5  0BC9               	decfsz	??_LCD_Init,f
  4508  05C6  2DC5               	goto	u3727
  4509  05C7  0BCA               	decfsz	??_LCD_Init+1,f
  4510  05C8  2DC5               	goto	u3727
  4511  05C9  0000               	nop
  4512                           
  4513                           ;Relogio_digital_timer0.c: 132: LCD_WriteCmd(0x30);
  4514  05CA  3030               	movlw	48
  4515  05CB  120A  158A  265F  120A  118A  	fcall	_LCD_WriteCmd
  4516                           
  4517                           ;Relogio_digital_timer0.c: 133: _delay((unsigned long)((100)*(18432000/4000000.0)));
  4518  05D0  3098               	movlw	152
  4519  05D1  1283               	bcf	3,5	;RP0=0, select bank0
  4520  05D2  1303               	bcf	3,6	;RP1=0, select bank0
  4521  05D3  00C9               	movwf	??_LCD_Init
  4522  05D4                     u3737:	
  4523  05D4  0BC9               	decfsz	??_LCD_Init,f
  4524  05D5  2DD4               	goto	u3737
  4525  05D6  0000               	nop
  4526                           
  4527                           ;Relogio_digital_timer0.c: 135: LCD_WriteCmd(0x30);
  4528  05D7  3030               	movlw	48
  4529  05D8  120A  158A  265F  120A  118A  	fcall	_LCD_WriteCmd
  4530                           
  4531                           ;Relogio_digital_timer0.c: 136: _delay((unsigned long)((40)*(18432000/4000000.0)));
  4532  05DD  303C               	movlw	60
  4533  05DE  1283               	bcf	3,5	;RP0=0, select bank0
  4534  05DF  1303               	bcf	3,6	;RP1=0, select bank0
  4535  05E0  00C9               	movwf	??_LCD_Init
  4536  05E1                     u3747:	
  4537  05E1  0BC9               	decfsz	??_LCD_Init,f
  4538  05E2  2DE1               	goto	u3747
  4539  05E3  0000               	nop
  4540                           
  4541                           ;Relogio_digital_timer0.c: 138: LCD_WriteCmd(0x38);
  4542  05E4  3038               	movlw	56
  4543  05E5  120A  158A  265F  120A  118A  	fcall	_LCD_WriteCmd
  4544                           
  4545                           ;Relogio_digital_timer0.c: 139: _delay((unsigned long)((40)*(18432000/4000000.0)));
  4546  05EA  303C               	movlw	60
  4547  05EB  1283               	bcf	3,5	;RP0=0, select bank0
  4548  05EC  1303               	bcf	3,6	;RP1=0, select bank0
  4549  05ED  00C9               	movwf	??_LCD_Init
  4550  05EE                     u3757:	
  4551  05EE  0BC9               	decfsz	??_LCD_Init,f
  4552  05EF  2DEE               	goto	u3757
  4553  05F0  0000               	nop
  4554                           
  4555                           ;Relogio_digital_timer0.c: 141: LCD_WriteCmd(0x01);
  4556  05F1  3001               	movlw	1
  4557  05F2  120A  158A  265F  120A  118A  	fcall	_LCD_WriteCmd
  4558                           
  4559                           ;Relogio_digital_timer0.c: 142: _delay((unsigned long)((2)*(18432000/4000.0)));
  4560  05F7  300C               	movlw	12
  4561  05F8  1283               	bcf	3,5	;RP0=0, select bank0
  4562  05F9  1303               	bcf	3,6	;RP1=0, select bank0
  4563  05FA  00CA               	movwf	??_LCD_Init+1
  4564  05FB  30F6               	movlw	246
  4565  05FC  00C9               	movwf	??_LCD_Init
  4566  05FD                     u3767:	
  4567  05FD  0BC9               	decfsz	??_LCD_Init,f
  4568  05FE  2DFD               	goto	u3767
  4569  05FF  0BCA               	decfsz	??_LCD_Init+1,f
  4570  0600  2DFD               	goto	u3767
  4571  0601  0000               	nop
  4572                           
  4573                           ;Relogio_digital_timer0.c: 144: LCD_WriteCmd(0x0C);
  4574  0602  300C               	movlw	12
  4575  0603  120A  158A  265F  120A  118A  	fcall	_LCD_WriteCmd
  4576                           
  4577                           ;Relogio_digital_timer0.c: 145: _delay((unsigned long)((40)*(18432000/4000000.0)));
  4578  0608  303C               	movlw	60
  4579  0609  1283               	bcf	3,5	;RP0=0, select bank0
  4580  060A  1303               	bcf	3,6	;RP1=0, select bank0
  4581  060B  00C9               	movwf	??_LCD_Init
  4582  060C                     u3777:	
  4583  060C  0BC9               	decfsz	??_LCD_Init,f
  4584  060D  2E0C               	goto	u3777
  4585  060E  0000               	nop
  4586                           
  4587                           ;Relogio_digital_timer0.c: 147: LCD_WriteCmd(0x06);
  4588  060F  3006               	movlw	6
  4589  0610  120A  158A  265F  120A  118A  	fcall	_LCD_WriteCmd
  4590                           
  4591                           ;Relogio_digital_timer0.c: 148: _delay((unsigned long)((40)*(18432000/4000000.0)));
  4592  0615  303C               	movlw	60
  4593  0616  1283               	bcf	3,5	;RP0=0, select bank0
  4594  0617  1303               	bcf	3,6	;RP1=0, select bank0
  4595  0618  00C9               	movwf	??_LCD_Init
  4596  0619                     u3787:	
  4597  0619  0BC9               	decfsz	??_LCD_Init,f
  4598  061A  2E19               	goto	u3787
  4599  061B  0000               	nop
  4600  061C  0008               	return
  4601  061D                     __end_of_LCD_Init:	
  4602                           
  4603                           	psect	text28
  4604  0E5F                     __ptext28:	
  4605 ;; *************** function _LCD_WriteCmd *****************
  4606 ;; Defined at:
  4607 ;;		line 64 in file "E:\Google Drive\Sistemas Embarcados\Projeto Relógio\Código MPLAB\Projeto_Relogio\Relogio_digital_ti
      +mer0.c"
  4608 ;; Parameters:    Size  Location     Type
  4609 ;;  Byte            1    wreg     unsigned char 
  4610 ;; Auto vars:     Size  Location     Type
  4611 ;;  Byte            1    1[BANK0 ] unsigned char 
  4612 ;; Return value:  Size  Location     Type
  4613 ;;                  1    wreg      void 
  4614 ;; Registers used:
  4615 ;;		wreg
  4616 ;; Tracked objects:
  4617 ;;		On entry : 0/0
  4618 ;;		On exit  : 0/0
  4619 ;;		Unchanged: 0/0
  4620 ;; Data sizes:     COMMON   BANK0   BANK1   BANK3   BANK2
  4621 ;;      Params:         0       0       0       0       0
  4622 ;;      Locals:         0       1       0       0       0
  4623 ;;      Temps:          0       1       0       0       0
  4624 ;;      Totals:         0       2       0       0       0
  4625 ;;Total ram usage:        2 bytes
  4626 ;; Hardware stack levels used:    1
  4627 ;; Hardware stack levels required when called:    2
  4628 ;; This function calls:
  4629 ;;		Nothing
  4630 ;; This function is called by:
  4631 ;;		_LCD_Clear
  4632 ;;		_LCD_Init
  4633 ;; This function uses a non-reentrant model
  4634 ;;
  4635                           
  4636                           
  4637                           ;psect for function _LCD_WriteCmd
  4638  0E5F                     _LCD_WriteCmd:	
  4639                           
  4640                           ;incstack = 0
  4641                           ; Regs used in _LCD_WriteCmd: [wreg]
  4642                           ;LCD_WriteCmd@Byte stored from wreg
  4643  0E5F  1283               	bcf	3,5	;RP0=0, select bank0
  4644  0E60  1303               	bcf	3,6	;RP1=0, select bank0
  4645  0E61  00C8               	movwf	LCD_WriteCmd@Byte
  4646                           
  4647                           ;Relogio_digital_timer0.c: 66: PORTEbits.RE0 = 0;
  4648  0E62  1009               	bcf	9,0	;volatile
  4649                           
  4650                           ;Relogio_digital_timer0.c: 68: PORTD = Byte;
  4651  0E63  0848               	movf	LCD_WriteCmd@Byte,w
  4652  0E64  0088               	movwf	8	;volatile
  4653                           
  4654                           ;Relogio_digital_timer0.c: 71: PORTEbits.RE1 = 1;
  4655  0E65  1489               	bsf	9,1	;volatile
  4656                           
  4657                           ;Relogio_digital_timer0.c: 73: _delay((unsigned long)((40)*(18432000/4000000.0)));
  4658  0E66  303C               	movlw	60
  4659  0E67  1283               	bcf	3,5	;RP0=0, select bank0
  4660  0E68  1303               	bcf	3,6	;RP1=0, select bank0
  4661  0E69  00C7               	movwf	??_LCD_WriteCmd
  4662  0E6A                     u3797:	
  4663  0E6A  0BC7               	decfsz	??_LCD_WriteCmd,f
  4664  0E6B  2E6A               	goto	u3797
  4665  0E6C  0000               	nop
  4666                           
  4667                           ;Relogio_digital_timer0.c: 75: PORTEbits.RE1 = 0;
  4668  0E6D  1283               	bcf	3,5	;RP0=0, select bank0
  4669  0E6E  1303               	bcf	3,6	;RP1=0, select bank0
  4670  0E6F  1089               	bcf	9,1	;volatile
  4671  0E70  0008               	return
  4672  0E71                     __end_of_LCD_WriteCmd:	
  4673                           
  4674                           	psect	text29
  4675  052C                     __ptext29:	
  4676 ;; *************** function _ISR *****************
  4677 ;; Defined at:
  4678 ;;		line 163 in file "E:\Google Drive\Sistemas Embarcados\Projeto Relógio\Código MPLAB\Projeto_Relogio\Relogio_digital_t
      +imer0.c"
  4679 ;; Parameters:    Size  Location     Type
  4680 ;;		None
  4681 ;; Auto vars:     Size  Location     Type
  4682 ;;		None
  4683 ;; Return value:  Size  Location     Type
  4684 ;;                  1    wreg      void 
  4685 ;; Registers used:
  4686 ;;		wreg, status,2, status,0, btemp+1, pclath, cstack
  4687 ;; Tracked objects:
  4688 ;;		On entry : 0/0
  4689 ;;		On exit  : 0/0
  4690 ;;		Unchanged: 0/0
  4691 ;; Data sizes:     COMMON   BANK0   BANK1   BANK3   BANK2
  4692 ;;      Params:         0       0       0       0       0
  4693 ;;      Locals:         0       0       0       0       0
  4694 ;;      Temps:          5       0       0       0       0
  4695 ;;      Totals:         5       0       0       0       0
  4696 ;;Total ram usage:        5 bytes
  4697 ;; Hardware stack levels used:    1
  4698 ;; Hardware stack levels required when called:    1
  4699 ;; This function calls:
  4700 ;;		_adicionaTempoSegurandoPrimeiroBotao
  4701 ;;		_adicionaTempoSegurandoSegundoBotao
  4702 ;; This function is called by:
  4703 ;;		Interrupt level 1
  4704 ;; This function uses a non-reentrant model
  4705 ;;
  4706                           
  4707                           
  4708                           ;psect for function _ISR
  4709  052C                     _ISR:	
  4710                           
  4711                           ;Relogio_digital_timer0.c: 165: TMR0=112;
  4712  052C  3070               	movlw	112
  4713  052D  0081               	movwf	1	;volatile
  4714                           
  4715                           ;Relogio_digital_timer0.c: 166: milissegundos++;
  4716  052E  3001               	movlw	1
  4717  052F  07B6               	addwf	_milissegundos,f
  4718  0530  1803               	skipnc
  4719  0531  0AB7               	incf	_milissegundos+1,f
  4720  0532  3000               	movlw	0
  4721  0533  07B7               	addwf	_milissegundos+1,f
  4722                           
  4723                           ;Relogio_digital_timer0.c: 167: INTCONbits.TMR0IF=0;
  4724  0534  110B               	bcf	11,2	;volatile
  4725                           
  4726                           ;Relogio_digital_timer0.c: 169: adicionaTempoSegurandoPrimeiroBotao();
  4727  0535  120A  158A  2638  120A  118A  	fcall	_adicionaTempoSegurandoPrimeiroBotao
  4728                           
  4729                           ;Relogio_digital_timer0.c: 170: adicionaTempoSegurandoSegundoBotao();
  4730  053A  120A  118A  27F3  120A  118A  	fcall	_adicionaTempoSegurandoSegundoBotao
  4731                           
  4732                           ;Relogio_digital_timer0.c: 172: if(milissegundos < 1000) {
  4733  053F  1283               	bcf	3,5	;RP0=0, select bank0
  4734  0540  1303               	bcf	3,6	;RP1=0, select bank0
  4735  0541  0837               	movf	_milissegundos+1,w
  4736  0542  3A80               	xorlw	128
  4737  0543  00FF               	movwf	127
  4738  0544  3083               	movlw	131
  4739  0545  027F               	subwf	127,w
  4740  0546  1D03               	skipz
  4741  0547  2D4A               	goto	u235_25
  4742  0548  30E8               	movlw	232
  4743  0549  0236               	subwf	_milissegundos,w
  4744  054A                     u235_25:	
  4745  054A  1C03               	btfss	3,0
  4746  054B  2D9B               	goto	i1l107
  4747                           
  4748                           ;Relogio_digital_timer0.c: 174: }
  4749                           ;Relogio_digital_timer0.c: 176: milissegundos = 0;
  4750                           
  4751                           ;Relogio_digital_timer0.c: 173: return;
  4752  054C  1283               	bcf	3,5	;RP0=0, select bank0
  4753  054D  1303               	bcf	3,6	;RP1=0, select bank0
  4754  054E  01B6               	clrf	_milissegundos
  4755  054F  01B7               	clrf	_milissegundos+1
  4756                           
  4757                           ;Relogio_digital_timer0.c: 177: segundos++;
  4758  0550  3001               	movlw	1
  4759  0551  07BC               	addwf	_segundos,f
  4760  0552  1803               	skipnc
  4761  0553  0ABD               	incf	_segundos+1,f
  4762  0554  3000               	movlw	0
  4763  0555  07BD               	addwf	_segundos+1,f
  4764                           
  4765                           ;Relogio_digital_timer0.c: 179: if(segundos < 60) {
  4766  0556  083D               	movf	_segundos+1,w
  4767  0557  3A80               	xorlw	128
  4768  0558  00FF               	movwf	127
  4769  0559  3080               	movlw	128
  4770  055A  027F               	subwf	127,w
  4771  055B  1D03               	skipz
  4772  055C  2D5F               	goto	u236_25
  4773  055D  303C               	movlw	60
  4774  055E  023C               	subwf	_segundos,w
  4775  055F                     u236_25:	
  4776  055F  1C03               	btfss	3,0
  4777  0560  2D9B               	goto	i1l107
  4778                           
  4779                           ;Relogio_digital_timer0.c: 181: }
  4780                           ;Relogio_digital_timer0.c: 183: segundos=0;
  4781                           
  4782                           ;Relogio_digital_timer0.c: 180: return;
  4783  0561  1283               	bcf	3,5	;RP0=0, select bank0
  4784  0562  1303               	bcf	3,6	;RP1=0, select bank0
  4785  0563  01BC               	clrf	_segundos
  4786  0564  01BD               	clrf	_segundos+1
  4787                           
  4788                           ;Relogio_digital_timer0.c: 184: minutos++;
  4789  0565  3001               	movlw	1
  4790  0566  07BA               	addwf	_minutos,f
  4791  0567  1803               	skipnc
  4792  0568  0ABB               	incf	_minutos+1,f
  4793  0569  3000               	movlw	0
  4794  056A  07BB               	addwf	_minutos+1,f
  4795                           
  4796                           ;Relogio_digital_timer0.c: 186: if(minutos < 60) {
  4797  056B  083B               	movf	_minutos+1,w
  4798  056C  3A80               	xorlw	128
  4799  056D  00FF               	movwf	127
  4800  056E  3080               	movlw	128
  4801  056F  027F               	subwf	127,w
  4802  0570  1D03               	skipz
  4803  0571  2D74               	goto	u237_25
  4804  0572  303C               	movlw	60
  4805  0573  023A               	subwf	_minutos,w
  4806  0574                     u237_25:	
  4807  0574  1C03               	btfss	3,0
  4808  0575  2D9B               	goto	i1l107
  4809                           
  4810                           ;Relogio_digital_timer0.c: 188: }
  4811                           ;Relogio_digital_timer0.c: 190: minutos=0;
  4812                           
  4813                           ;Relogio_digital_timer0.c: 187: return;
  4814  0576  1283               	bcf	3,5	;RP0=0, select bank0
  4815  0577  1303               	bcf	3,6	;RP1=0, select bank0
  4816  0578  01BA               	clrf	_minutos
  4817  0579  01BB               	clrf	_minutos+1
  4818                           
  4819                           ;Relogio_digital_timer0.c: 191: horas++;
  4820  057A  3001               	movlw	1
  4821  057B  07B8               	addwf	_horas,f
  4822  057C  1803               	skipnc
  4823  057D  0AB9               	incf	_horas+1,f
  4824  057E  3000               	movlw	0
  4825  057F  07B9               	addwf	_horas+1,f
  4826                           
  4827                           ;Relogio_digital_timer0.c: 193: if(horas < limiteHorario) {
  4828  0580  0839               	movf	_horas+1,w
  4829  0581  3A80               	xorlw	128
  4830  0582  00F0               	movwf	??_ISR
  4831  0583  0858               	movf	_limiteHorario+1,w
  4832  0584  3A80               	xorlw	128
  4833  0585  0270               	subwf	??_ISR,w
  4834  0586  1D03               	skipz
  4835  0587  2D8A               	goto	u238_25
  4836  0588  0857               	movf	_limiteHorario,w
  4837  0589  0238               	subwf	_horas,w
  4838  058A                     u238_25:	
  4839  058A  1C03               	btfss	3,0
  4840  058B  2D9B               	goto	i1l107
  4841                           
  4842                           ;Relogio_digital_timer0.c: 195: }
  4843                           ;Relogio_digital_timer0.c: 197: if (flagPm == 0) {
  4844                           
  4845                           ;Relogio_digital_timer0.c: 194: return;
  4846  058C  1283               	bcf	3,5	;RP0=0, select bank0
  4847  058D  1303               	bcf	3,6	;RP1=0, select bank0
  4848  058E  0822               	movf	_flagPm,w
  4849  058F  0423               	iorwf	_flagPm+1,w
  4850  0590  1D03               	btfss	3,2
  4851  0591  2D97               	goto	i1l2206
  4852                           
  4853                           ;Relogio_digital_timer0.c: 198: flagPm = 1;
  4854  0592  3001               	movlw	1
  4855  0593  00A2               	movwf	_flagPm
  4856  0594  3000               	movlw	0
  4857  0595  00A3               	movwf	_flagPm+1
  4858                           
  4859                           ;Relogio_digital_timer0.c: 199: } else {
  4860  0596  2D99               	goto	i1l112
  4861  0597                     i1l2206:	
  4862                           
  4863                           ;Relogio_digital_timer0.c: 200: flagPm = 0;
  4864  0597  01A2               	clrf	_flagPm
  4865  0598  01A3               	clrf	_flagPm+1
  4866  0599                     i1l112:	
  4867                           
  4868                           ;Relogio_digital_timer0.c: 201: }
  4869                           ;Relogio_digital_timer0.c: 203: horas=0;
  4870  0599  01B8               	clrf	_horas
  4871  059A  01B9               	clrf	_horas+1
  4872  059B                     i1l107:	
  4873  059B  0874               	movf	??_ISR+4,w
  4874  059C  1283               	bcf	3,5	;RP0=0, select bank0
  4875  059D  1303               	bcf	3,6	;RP1=0, select bank0
  4876  059E  00FF               	movwf	127
  4877  059F  0873               	movf	??_ISR+3,w
  4878  05A0  008A               	movwf	10
  4879  05A1  0872               	movf	??_ISR+2,w
  4880  05A2  0084               	movwf	4
  4881  05A3  0E71               	swapf	(??_ISR+1)^(0+-128),w
  4882  05A4  0083               	movwf	3
  4883  05A5  0EFE               	swapf	126,f
  4884  05A6  0E7E               	swapf	126,w
  4885  05A7  0009               	retfie
  4886  05A8                     __end_of_ISR:	
  4887                           
  4888                           	psect	intentry
  4889  0004                     __pintentry:	
  4890                           ;incstack = 0
  4891                           ; Regs used in _ISR: [wreg+status,2+status,0+btemp+1+pclath+cstack]
  4892                           
  4893  0004                     interrupt_function:	
  4894  007E                     saved_w	set	btemp
  4895  0004  00FE               	movwf	btemp
  4896  0005  0E03               	swapf	3,w
  4897  0006  00F1               	movwf	??_ISR+1
  4898  0007  0804               	movf	4,w
  4899  0008  00F2               	movwf	??_ISR+2
  4900  0009  080A               	movf	10,w
  4901  000A  00F3               	movwf	??_ISR+3
  4902  000B  1283               	bcf	3,5	;RP0=0, select bank0
  4903  000C  1303               	bcf	3,6	;RP1=0, select bank0
  4904  000D  087F               	movf	btemp+1,w
  4905  000E  00F4               	movwf	??_ISR+4
  4906  000F  120A  118A  2D2C   	ljmp	_ISR
  4907                           
  4908                           	psect	text30
  4909  07F3                     __ptext30:	
  4910 ;; *************** function _adicionaTempoSegurandoSegundoBotao *****************
  4911 ;; Defined at:
  4912 ;;		line 157 in file "E:\Google Drive\Sistemas Embarcados\Projeto Relógio\Código MPLAB\Projeto_Relogio\Relogio_digital_t
      +imer0.c"
  4913 ;; Parameters:    Size  Location     Type
  4914 ;;		None
  4915 ;; Auto vars:     Size  Location     Type
  4916 ;;		None
  4917 ;; Return value:  Size  Location     Type
  4918 ;;                  1    wreg      void 
  4919 ;; Registers used:
  4920 ;;		wreg
  4921 ;; Tracked objects:
  4922 ;;		On entry : 0/0
  4923 ;;		On exit  : 0/0
  4924 ;;		Unchanged: 0/0
  4925 ;; Data sizes:     COMMON   BANK0   BANK1   BANK3   BANK2
  4926 ;;      Params:         0       0       0       0       0
  4927 ;;      Locals:         0       0       0       0       0
  4928 ;;      Temps:          0       0       0       0       0
  4929 ;;      Totals:         0       0       0       0       0
  4930 ;;Total ram usage:        0 bytes
  4931 ;; Hardware stack levels used:    1
  4932 ;; This function calls:
  4933 ;;		Nothing
  4934 ;; This function is called by:
  4935 ;;		_ISR
  4936 ;; This function uses a non-reentrant model
  4937 ;;
  4938                           
  4939                           
  4940                           ;psect for function _adicionaTempoSegurandoSegundoBotao
  4941  07F3                     _adicionaTempoSegurandoSegundoBotao:	
  4942                           
  4943                           ;Relogio_digital_timer0.c: 158: if (PORTBbits.RB1 == 1) {
  4944                           
  4945                           ;incstack = 0
  4946                           ; Regs used in _adicionaTempoSegurandoSegundoBotao: [wreg]
  4947  07F3  1283               	bcf	3,5	;RP0=0, select bank0
  4948  07F4  1303               	bcf	3,6	;RP1=0, select bank0
  4949  07F5  1C86               	btfss	6,1	;volatile
  4950  07F6  0008               	return
  4951                           
  4952                           ;Relogio_digital_timer0.c: 159: tempoSegurandoSegundoBotaoMili++;
  4953  07F7  3001               	movlw	1
  4954  07F8  07AE               	addwf	_tempoSegurandoSegundoBotaoMili,f
  4955  07F9  1803               	skipnc
  4956  07FA  0AAF               	incf	_tempoSegurandoSegundoBotaoMili+1,f
  4957  07FB  3000               	movlw	0
  4958  07FC  07AF               	addwf	_tempoSegurandoSegundoBotaoMili+1,f
  4959  07FD  0008               	return
  4960  07FE                     __end_of_adicionaTempoSegurandoSegundoBotao:	
  4961                           
  4962                           	psect	text31
  4963  0E38                     __ptext31:	
  4964 ;; *************** function _adicionaTempoSegurandoPrimeiroBotao *****************
  4965 ;; Defined at:
  4966 ;;		line 151 in file "E:\Google Drive\Sistemas Embarcados\Projeto Relógio\Código MPLAB\Projeto_Relogio\Relogio_digital_t
      +imer0.c"
  4967 ;; Parameters:    Size  Location     Type
  4968 ;;		None
  4969 ;; Auto vars:     Size  Location     Type
  4970 ;;		None
  4971 ;; Return value:  Size  Location     Type
  4972 ;;                  1    wreg      void 
  4973 ;; Registers used:
  4974 ;;		wreg
  4975 ;; Tracked objects:
  4976 ;;		On entry : 0/0
  4977 ;;		On exit  : 0/0
  4978 ;;		Unchanged: 0/0
  4979 ;; Data sizes:     COMMON   BANK0   BANK1   BANK3   BANK2
  4980 ;;      Params:         0       0       0       0       0
  4981 ;;      Locals:         0       0       0       0       0
  4982 ;;      Temps:          0       0       0       0       0
  4983 ;;      Totals:         0       0       0       0       0
  4984 ;;Total ram usage:        0 bytes
  4985 ;; Hardware stack levels used:    1
  4986 ;; This function calls:
  4987 ;;		Nothing
  4988 ;; This function is called by:
  4989 ;;		_ISR
  4990 ;; This function uses a non-reentrant model
  4991 ;;
  4992                           
  4993                           
  4994                           ;psect for function _adicionaTempoSegurandoPrimeiroBotao
  4995  0E38                     _adicionaTempoSegurandoPrimeiroBotao:	
  4996                           
  4997                           ;Relogio_digital_timer0.c: 152: if (PORTBbits.RB0 == 1) {
  4998                           
  4999                           ;incstack = 0
  5000                           ; Regs used in _adicionaTempoSegurandoPrimeiroBotao: [wreg]
  5001  0E38  1283               	bcf	3,5	;RP0=0, select bank0
  5002  0E39  1303               	bcf	3,6	;RP1=0, select bank0
  5003  0E3A  1C06               	btfss	6,0	;volatile
  5004  0E3B  0008               	return
  5005                           
  5006                           ;Relogio_digital_timer0.c: 153: tempoSegurandoPrimeiroBotaoMili++;
  5007  0E3C  3001               	movlw	1
  5008  0E3D  07B0               	addwf	_tempoSegurandoPrimeiroBotaoMili,f
  5009  0E3E  1803               	skipnc
  5010  0E3F  0AB1               	incf	_tempoSegurandoPrimeiroBotaoMili+1,f
  5011  0E40  3000               	movlw	0
  5012  0E41  07B1               	addwf	_tempoSegurandoPrimeiroBotaoMili+1,f
  5013  0E42  0008               	return
  5014  0E43                     __end_of_adicionaTempoSegurandoPrimeiroBotao:	
  5015  007E                     btemp	set	126	;btemp
  5016  007E                     wtemp0	set	126


Data Sizes:
    Strings     136
    Constant    0
    Data        4
    BSS         43
    Persistent  0
    Stack       0

Auto Spaces:
    Space          Size  Autos    Used
    COMMON           14      5       9
    BANK0            80     14      57
    BANK1            80      0       0
    BANK3            96      0       0
    BANK2            96      0       0

Pointer List with Targets:

    LCD_WriteString@Str	PTR const unsigned char  size(2) Largest target is 17
		 -> STR_11(CODE[17]), STR_10(CODE[17]), STR_9(CODE[17]), STR_8(CODE[17]), 
		 -> STR_7(CODE[17]), STR_6(CODE[17]), STR_5(CODE[17]), STR_4(CODE[17]), 
		 -> STR_3(CODE[17]), STR_2(CODE[17]), STR_1(CODE[17]), textoNaTela(BANK0[9]), 


Critical Paths under _main in COMMON

    None.

Critical Paths under _ISR in COMMON

    None.

Critical Paths under _main in BANK0

    _exibeTela->_exibeHorarioPiscando
    _exibeTela->_exibeHorarioPiscandoAlarme
    _opcoesDeExibicaoHorario->_LCD_WriteString
    _mostraMenuOpcoes->_LCD_WriteString
    _exibeHorarioPiscandoAlarme->_deveExibirHoras
    _exibeHorarioPiscandoAlarme->_deveExibirMinutos
    _exibeHorarioPiscando->_deveExibirHoras
    _exibeHorarioPiscando->_deveExibirMinutos
    _deveExibirSegundos->___awdiv
    _deveExibirMinutos->___awdiv
    _deveExibirHoras->___awdiv
    _exibeHorarioNormalmente->___awdiv
    _LCD_WriteString->_LCD_WriteData
    _LCD_Clear->_LCD_WriteCmd
    _executaAcaoPrimeiroBotao->_aumentarValorDoLadoEscolhido
    _executaAcaoPrimeiroBotao->_aumentarValorDoLadoEscolhidoAlarme
    _LCD_Init->_LCD_WriteCmd

Critical Paths under _ISR in BANK0

    None.

Critical Paths under _main in BANK1

    None.

Critical Paths under _ISR in BANK1

    None.

Critical Paths under _main in BANK3

    None.

Critical Paths under _ISR in BANK3

    None.

Critical Paths under _main in BANK2

    None.

Critical Paths under _ISR in BANK2

    None.

Call Graph Tables:

 ---------------------------------------------------------------------------------
 (Depth) Function   	        Calls       Base Space   Used Autos Params    Refs
 ---------------------------------------------------------------------------------
 (0) _main                                                 1     1      0   26933
                                             13 BANK0      1     1      0
                          _LCD_Clear
                         _LCD_Cursor
                           _LCD_Init
           _executaAcaoPrimeiroBotao
            _executaAcaoSegundoBotao
                          _exibeTela
 ---------------------------------------------------------------------------------
 (1) _exibeTela                                            0     0      0   25301
                          _LCD_Clear
            _exibeHorarioNormalmente
               _exibeHorarioPiscando
         _exibeHorarioPiscandoAlarme
                   _mostraMenuOpcoes
            _opcoesDeExibicaoHorario
 ---------------------------------------------------------------------------------
 (2) _opcoesDeExibicaoHorario                              0     0      0    2074
                         _LCD_Cursor
                    _LCD_WriteString
 ---------------------------------------------------------------------------------
 (2) _mostraMenuOpcoes                                     0     0      0    2074
                         _LCD_Cursor
                    _LCD_WriteString
 ---------------------------------------------------------------------------------
 (2) _exibeHorarioPiscandoAlarme                           1     1      0    7086
                                             12 BANK0      1     1      0
                         _LCD_Cursor
                    _LCD_WriteString
                    _deveExibirHoras
                  _deveExibirMinutos
 ---------------------------------------------------------------------------------
 (2) _exibeHorarioPiscando                                 1     1      0    9524
                                             12 BANK0      1     1      0
                         _LCD_Cursor
                    _LCD_WriteString
                    _deveExibirHoras
                  _deveExibirMinutos
                 _deveExibirSegundos
 ---------------------------------------------------------------------------------
 (3) _deveExibirSegundos                                   1     1      0    2438
                                              9 BANK0      1     1      0
                            ___awdiv
                            ___awmod
 ---------------------------------------------------------------------------------
 (3) _deveExibirMinutos                                    3     3      0    2506
                                              9 BANK0      3     3      0
                            ___awdiv
                            ___awmod
 ---------------------------------------------------------------------------------
 (3) _deveExibirHoras                                      3     3      0    2506
                                              9 BANK0      3     3      0
                            ___awdiv
                            ___awmod
 ---------------------------------------------------------------------------------
 (2) _exibeHorarioNormalmente                              1     1      0    4512
                                              9 BANK0      1     1      0
                         _LCD_Cursor
                    _LCD_WriteString
                            ___awdiv
                            ___awmod
 ---------------------------------------------------------------------------------
 (4) ___awmod                                              7     3      4    1213
                                              0 BANK0      7     3      4
 ---------------------------------------------------------------------------------
 (4) ___awdiv                                              9     5      4    1225
                                              0 BANK0      9     5      4
 ---------------------------------------------------------------------------------
 (3) _LCD_WriteString                                      2     0      2    1006
                                              2 BANK0      2     0      2
                      _LCD_WriteData
 ---------------------------------------------------------------------------------
 (4) _LCD_WriteData                                        2     2      0      31
                                              0 BANK0      2     2      0
 ---------------------------------------------------------------------------------
 (3) _LCD_Cursor                                           3     2      1    1068
                                              0 BANK0      3     2      1
 ---------------------------------------------------------------------------------
 (2) _LCD_Clear                                            2     2      0      31
                                              2 BANK0      2     2      0
                       _LCD_WriteCmd
 ---------------------------------------------------------------------------------
 (1) _executaAcaoSegundoBotao                              2     2      0     282
                                              0 BANK0      2     2      0
                  _diminuirOpcaoMenu
       _diminuirValorDoLadoEscolhido
 _diminuirValorDoLadoEscolhidoAlarme
                  _trocaDeLadoEdicao
               _trocaExibicaoHorario
             _trocarSubMenuEscolhido
 ---------------------------------------------------------------------------------
 (2) _trocaExibicaoHorario                                 0     0      0       0
 ---------------------------------------------------------------------------------
 (2) _diminuirValorDoLadoEscolhidoAlarme                   0     0      0       0
 ---------------------------------------------------------------------------------
 (2) _diminuirValorDoLadoEscolhido                         0     0      0       0
 ---------------------------------------------------------------------------------
 (2) _diminuirOpcaoMenu                                    0     0      0       0
 ---------------------------------------------------------------------------------
 (1) _executaAcaoPrimeiroBotao                             2     2      0     220
                                              1 BANK0      2     2      0
                  _aumentarOpcaoMenu
       _aumentarValorDoLadoEscolhido
 _aumentarValorDoLadoEscolhidoAlarme
                  _trocaDeLadoEdicao
             _trocarSubMenuEscolhido
 ---------------------------------------------------------------------------------
 (2) _trocarSubMenuEscolhido                               0     0      0       0
 ---------------------------------------------------------------------------------
 (2) _trocaDeLadoEdicao                                    0     0      0       0
 ---------------------------------------------------------------------------------
 (2) _aumentarValorDoLadoEscolhidoAlarme                   1     1      0       0
                                              0 BANK0      1     1      0
 ---------------------------------------------------------------------------------
 (2) _aumentarValorDoLadoEscolhido                         1     1      0       0
                                              0 BANK0      1     1      0
 ---------------------------------------------------------------------------------
 (2) _aumentarOpcaoMenu                                    0     0      0       0
 ---------------------------------------------------------------------------------
 (1) _LCD_Init                                             2     2      0      31
                                              2 BANK0      2     2      0
                       _LCD_WriteCmd
 ---------------------------------------------------------------------------------
 (3) _LCD_WriteCmd                                         2     2      0      31
                                              0 BANK0      2     2      0
 ---------------------------------------------------------------------------------
 Estimated maximum stack depth 4
 ---------------------------------------------------------------------------------
 (Depth) Function   	        Calls       Base Space   Used Autos Params    Refs
 ---------------------------------------------------------------------------------
 (5) _ISR                                                  5     5      0       0
                                              0 COMMON     5     5      0
_adicionaTempoSegurandoPrimeiroBotao
 _adicionaTempoSegurandoSegundoBotao
 ---------------------------------------------------------------------------------
 (6) _adicionaTempoSegurandoSegundoBotao                   0     0      0       0
 ---------------------------------------------------------------------------------
 (6) _adicionaTempoSegurandoPrimeiroBotao                  0     0      0       0
 ---------------------------------------------------------------------------------
 Estimated maximum stack depth 6
 ---------------------------------------------------------------------------------

 Call Graph Graphs:

 _main (ROOT)
   _LCD_Clear
     _LCD_WriteCmd
   _LCD_Cursor
   _LCD_Init
     _LCD_WriteCmd
   _executaAcaoPrimeiroBotao
     _aumentarOpcaoMenu
     _aumentarValorDoLadoEscolhido
     _aumentarValorDoLadoEscolhidoAlarme
     _trocaDeLadoEdicao
     _trocarSubMenuEscolhido
   _executaAcaoSegundoBotao
     _diminuirOpcaoMenu
     _diminuirValorDoLadoEscolhido
     _diminuirValorDoLadoEscolhidoAlarme
     _trocaDeLadoEdicao
     _trocaExibicaoHorario
     _trocarSubMenuEscolhido
   _exibeTela
     _LCD_Clear
       _LCD_WriteCmd
     _exibeHorarioNormalmente
       _LCD_Cursor
       _LCD_WriteString
         _LCD_WriteData
       ___awdiv
       ___awmod
     _exibeHorarioPiscando
       _LCD_Cursor
       _LCD_WriteString
         _LCD_WriteData
       _deveExibirHoras
         ___awdiv
         ___awmod
       _deveExibirMinutos
         ___awdiv
         ___awmod
       _deveExibirSegundos
         ___awdiv
         ___awmod
     _exibeHorarioPiscandoAlarme
       _LCD_Cursor
       _LCD_WriteString
         _LCD_WriteData
       _deveExibirHoras
         ___awdiv
         ___awmod
       _deveExibirMinutos
         ___awdiv
         ___awmod
     _mostraMenuOpcoes
       _LCD_Cursor
       _LCD_WriteString
         _LCD_WriteData
     _opcoesDeExibicaoHorario
       _LCD_Cursor
       _LCD_WriteString
         _LCD_WriteData

 _ISR (ROOT)
   _adicionaTempoSegurandoPrimeiroBotao
   _adicionaTempoSegurandoSegundoBotao

 Address spaces:
Name               Size   Autos  Total    Cost      Usage
BANK3               60      0       0       9        0.0%
BITBANK3            60      0       0       8        0.0%
SFR3                 0      0       0       4        0.0%
BITSFR3              0      0       0       4        0.0%
BANK2               60      0       0      11        0.0%
BITBANK2            60      0       0      10        0.0%
SFR2                 0      0       0       5        0.0%
BITSFR2              0      0       0       5        0.0%
BANK1               50      0       0       7        0.0%
BITBANK1            50      0       0       6        0.0%
SFR1                 0      0       0       2        0.0%
BITSFR1              0      0       0       2        0.0%
BANK0               50      E      39       5       71.3%
BITBANK0            50      0       0       4        0.0%
SFR0                 0      0       0       1        0.0%
BITSFR0              0      0       0       1        0.0%
COMMON               E      5       9       1       64.3%
BITCOMMON            E      0       0       0        0.0%
CODE                 0      0       0       0        0.0%
DATA                 0      0      42      12        0.0%
ABS                  0      0      42       3        0.0%
NULL                 0      0       0       0        0.0%
STACK                0      0       0       2        0.0%
EEDATA             100      0       0       0        0.0%


Microchip Technology PIC Macro Assembler V1.44 build -154322312 
Symbol Table                                                                                   Tue Mar 10 21:35:44 2020

                          ??_mostraMenuOpcoes 0075                                             pc 0002  
                                 ?_LCD_Cursor 0047                                   __CFG_CP$OFF 0000  
                    ??_trocarSubMenuEscolhido 0075                                  ___awdiv@sign 004D  
                                          fsr 0004                                           l118 03D4  
                                         l244 03AE                                           l253 028B  
                                         l254 029D                                           l255 029E  
                                __CFG_CPD$OFF 0000                                           _ISR 052C  
                   ??_executaAcaoSegundoBotao 0075                                           fsr0 0004  
                                         indf 0000                                  ___awmod@sign 004D  
                                __CFG_FOSC$HS 0000                             ??_LCD_WriteString 0075  
                                __CFG_LVP$OFF 0000                                          ?_ISR 0070  
                                        l3020 0274                            LCD_WriteString@Str 0049  
                                        l3022 0278                                          l3016 0260  
                                        l2402 070F                                          l3042 02AD  
                                        l2500 03D7                                          l3028 0285  
                                        l2342 0634                                          l2406 0717  
                                        l3070 039D                                          l2600 0E5C  
                                        l2416 0E7B                                          l2360 0660  
                                        l2352 063C                                          l2336 0629  
                                        l2522 0F8F                                          l2610 0692  
                                        l2354 064A                                          l2364 066B  
                                        l2380 06DB                                          l2452 07C8  
                                        l2700 031D                                          l2518 0F8C  
                                        l2526 0F96                                          l2622 06B5  
                                        l2614 0697                                          l2438 0F00  
                                        l2470 0781                                          l2544 0FEE  
                                        l2624 06B9                                          l2368 0673  
                                        l2392 06E8                                          l2384 06E2  
                                        l2448 07BF                                          l2712 034D  
                                        l2394 06F6                                          l2466 0778  
                                        l2580 0E4E                                          l2564 0ECF  
                                        l2660 0737                                          l2806 01B4  
                                        l2902 00EA                                          l2398 0704  
                                        l2670 0752                                          l2496 03D2  
                                        l2816 01CE                                          l2826 01E8  
                                        l2922 011E                                          l2914 0108  
                                        l2906 00F4                                          l2940 0384  
                                        l2870 0096                                          l2862 0081  
                                        l2846 0057                                          l2942 0388  
                                        l2776 0162                                          l2688 02ED  
                                        l2944 038C                                          l2952 0398  
                                        l2794 0195                                          l2786 0180  
                                        l2882 00B6                                          l2874 00A0  
                                        l2858 0077                                          l2946 0390  
                __end_of_trocaExibicaoHorario 06CF                                          l2892 00D0  
                                        l2948 0394                                          l2798 019F  
                                        STR_1 0432                                          STR_2 0421  
                                        STR_3 0443                                          STR_4 0476  
                                        STR_5 0465                                          STR_6 0454  
                                        STR_7 0465                                          STR_8 0487  
                                        STR_9 0410                                          u3005 06A4  
                                        u3015 06C2                                          u3215 01AE  
                                        u3135 0151                                          u3155 0171  
                                        u3315 0051                                          u3245 01C8  
                                        u2525 063F                                          u3175 018F  
                                        u3415 00AF                                          u3335 0066  
                                        u2545 064B                                          u2625 06EB  
                                        u3275 01E2                                          u3515 0103  
                                        u2555 0657                                          u3445 00CA  
                                        u2565 0661                                          u2645 06FC  
                                        u3605 0291                                          u3295 01F8  
                                        u3535 0118                                          u3375 0090  
                                        u2655 0705                                          u3615 0299  
                                        u3555 012E                                          u3475 00E4  
                                        u3707 0FCD                                          u3717 05B4  
                                        u3727 05C5                                          u2775 03C5  
                                        u3575 026B                                          u3737 05D4  
                                        u3747 05E1                                          u2955 0E9B  
                                        u2875 0FE7                                          u3667 03F4  
                                        u3757 05EE                                          u2965 0EB5  
                                        u3677 0E83                                          u3767 05FD  
                                        u3687 0FB1                                          u3777 060C  
                                        u3697 0FC0                                          u3787 0619  
                                        u3797 0E6A                                          _TMR0 0001  
                                        _main 01FE                            __size_of_LCD_Clear 002C  
                                        btemp 007E                                          start 0012  
                               ?_LCD_WriteCmd 0070                                 _LCD_WriteData 03E9  
                                       ??_ISR 0070               __end_of_opcoesDeExibicaoHorario 0765  
                            __end_of_LCD_Init 061D                                         ?_main 0070  
        __end_of_diminuirValorDoLadoEscolhido 0FA5         __size_of_diminuirValorDoLadoEscolhido 002C  
                _diminuirValorDoLadoEscolhido 0F79                               __end_of___awdiv 0678  
                                       STR_10 0487                                         STR_11 0465  
                               __CFG_WDTE$OFF 0000                               __end_of___awmod 071C  
                             ___awdiv@divisor 0047                      ?_exibeHorarioNormalmente 0070  
                                       i1l112 0599                                         i1l107 059B  
                             ___awdiv@counter 004C                                         _PORTB 0006  
                                       _PORTC 0007                                         _PORTD 0008  
                                       _PORTE 0009                                         _TRISB 0086  
                                       _TRISC 0087                                         _TRISD 0088  
                                       _TRISE 0089                                 __CFG_PWRTE$ON 0000  
          __end_of_exibeHorarioPiscandoAlarme 0F00                    _exibeHorarioPiscandoAlarme 0EDE  
                                       _horas 0038                                __CFG_BOREN$OFF 0000  
                         __size_of_LCD_Cursor 0019                                         pclath 000A  
                                       status 0003                                         wtemp0 007E  
             __end_of_executaAcaoSegundoBotao 013C                                ??_LCD_WriteCmd 0047  
                              ?_LCD_WriteData 0070                               __initialization 0015  
                                __end_of_main 02BD               __size_of_trocarSubMenuEscolhido 000E  
                                      ??_main 0054                             __end_of_LCD_Clear 0FD1  
               ?_diminuirValorDoLadoEscolhido 0070                              ___awdiv@dividend 0049  
                                      i1l2206 0597                                        u235_25 054A  
                                      u236_25 055F                                        u237_25 0574  
                                      u238_25 058A                                _escolhaSubMenu 0020  
              _tempoSegurandoSegundoBotaoMili 002E                              LCD_WriteCmd@Byte 0048  
                  __end_of_deveExibirSegundos 0F4E                                     ??___awdiv 004B  
                                   ??___awmod 004B                                        _flagB0 002C  
                                      _flagB1 002A                                        _flagPm 0022  
                        _trocaExibicaoHorario 0678                              ___awdiv@quotient 004E  
                             ___awmod@divisor 0047                               ___awmod@counter 004C  
               __size_of_exibeHorarioPiscando 002B                                        saved_w 007E  
        __end_of_aumentarValorDoLadoEscolhido 03E9         __size_of_aumentarValorDoLadoEscolhido 003A  
                _aumentarValorDoLadoEscolhido 03AF                    ??_executaAcaoPrimeiroBotao 0075  
                      _trocarSubMenuEscolhido 0E51         deveExibirMinutos@minutosSendoExibidos 0051  
                     __end_of__initialization 0038                                     ?_LCD_Init 0070  
                             ??_LCD_WriteData 0047                             _aumentarOpcaoMenu 0E8A  
                              __pcstackCOMMON 0070                                  __pidataBANK0 03FB  
                          ?_aumentarOpcaoMenu 0070                                 LCD_Cursor@Col 0047  
                               LCD_Cursor@Row 0049                                  ??_LCD_Cursor 0048  
                             _LCD_WriteString 0F00                         ?_trocaExibicaoHorario 0070  
                         ??_aumentarOpcaoMenu 0075                      __size_of_deveExibirHoras 0047  
                   __size_of_mostraMenuOpcoes 00B7                                _OPTION_REGbits 0081  
  __end_of_diminuirValorDoLadoEscolhidoAlarme 0EDE   __size_of_diminuirValorDoLadoEscolhidoAlarme 0020  
        ??_diminuirValorDoLadoEscolhidoAlarme 0075           ?_diminuirValorDoLadoEscolhidoAlarme 0070  
          _diminuirValorDoLadoEscolhidoAlarme 0EBE                          __end_of_LCD_WriteCmd 0E71  
              ??_diminuirValorDoLadoEscolhido 0075                                    __pbssBANK0 0020  
               ?_aumentarValorDoLadoEscolhido 0070                            __end_of_LCD_Cursor 0E8A  
                                  ??_LCD_Init 0049                            __size_of_exibeTela 003B  
                   __end_of_aumentarOpcaoMenu 0EA4                                    __pmaintext 01FE  
                                  __pintentry 0004                                 _limiteHorario 0057  
                    ?_opcoesDeExibicaoHorario 0070                   ?_exibeHorarioPiscandoAlarme 0070  
                                  __stringtab 0400              __size_of_exibeHorarioNormalmente 0094  
                     __end_of_LCD_WriteString 0F25                             LCD_WriteData@Byte 0048  
                      ??_trocaExibicaoHorario 0075                                       ___awdiv 061D  
                                     ___awmod 06CF                      ?_executaAcaoSegundoBotao 0070  
                                     __ptext1 0374                                       __ptext2 071C  
                                     __ptext3 02BD                                       __ptext4 0EDE  
                                     __ptext5 0F4E                                       __ptext6 0F25  
                                     __ptext7 0765                                       __ptext8 07AC  
                                     __ptext9 0498                             __end_of_exibeTela 03AF  
                                __size_of_ISR 007C                                _flagLimparTela 0024  
                            ___awmod@dividend 0049                                       _minutos 003A  
                                   _LCD_Clear 0FA5              __end_of_executaAcaoPrimeiroBotao 01FE  
             _tempoSegurandoPrimeiroBotaoMili 0030                                       clrloop0 0E31  
                           ??_deveExibirHoras 0050                          end_of_initialization 0038  
           deveExibirHoras@horasSendoExibidas 0051                    __size_of_aumentarOpcaoMenu 001A  
              ??_aumentarValorDoLadoEscolhido 0047                                 _milissegundos 0036  
                          _flagEditandoUmLado 0077                         __size_of_LCD_WriteCmd 0012  
                                   _PORTBbits 0006                                     _PORTEbits 0009  
                            _mostraMenuOpcoes 02BD                            _deveExibirSegundos 0F25  
                     ?_trocarSubMenuEscolhido 0070                                    ?_LCD_Clear 0070  
                         ?_deveExibirSegundos 0070                  __end_of_exibeHorarioPiscando 0F79  
                            ?_LCD_WriteString 0049                             __size_of_LCD_Init 0075  
                                _LCD_WriteCmd 0E5F                            _flagEstadoPiscando 0026  
                        ??_deveExibirSegundos 0050                __end_of_trocarSubMenuEscolhido 0E5F  
                         start_initialization 0015                                   __end_of_ISR 05A8  
                     _exibeHorarioNormalmente 0498    __end_of_adicionaTempoSegurandoSegundoBotao 07FE  
 __size_of_adicionaTempoSegurandoSegundoBotao 000B          ??_adicionaTempoSegurandoSegundoBotao 0070  
         ?_adicionaTempoSegurandoSegundoBotao 0070            _adicionaTempoSegurandoSegundoBotao 07F3  
                               _minutosAlarme 0034                         __end_of_LCD_WriteData 03FB  
           __size_of_executaAcaoPrimeiroBotao 00C2                     ?_executaAcaoPrimeiroBotao 0070  
       executaAcaoSegundoBotao@tempoSegurando 0047                                   __pdataBANK0 0055  
                                 __pbssCOMMON 0075                                     ___latbits 0002  
                               __pcstackBANK0 0047                                   ??_LCD_Clear 0049  
            __size_of_opcoesDeExibicaoHorario 0049                                      ?___awdiv 0047  
                                    ?___awmod 0047                                     __pstrings 0400  
                             _deveExibirHoras 07AC                          _exibeHorarioPiscando 0F4E  
                                   _exibeTela 0374                     ??_exibeHorarioNormalmente 0050  
            __size_of_executaAcaoSegundoBotao 0100                             interrupt_function 0004  
                                    _LCD_Init 05A8                      __end_of_mostraMenuOpcoes 0374  
                                   clear_ram0 0E30                             _diminuirOpcaoMenu 0EA4  
                          ?_diminuirOpcaoMenu 0070                             _deveExibirMinutos 0765  
               __size_of_trocaExibicaoHorario 0057                           ??_diminuirOpcaoMenu 0075  
                                 __stringbase 040F                                    _ADCON1bits 009F  
                          ?_deveExibirMinutos 0070                         ?_exibeHorarioPiscando 0070  
                                  ?_exibeTela 0070                           ??_deveExibirMinutos 0050  
                                 _escolhaMenu 0055                                   _escolhaModo 0075  
                          _flagLadoParaEditar 0028                             _trocaDeLadoEdicao 0E43  
                   __end_of_diminuirOpcaoMenu 0EBE                            ?_trocaDeLadoEdicao 0070  
             __end_of_exibeHorarioNormalmente 052C                       __end_of_deveExibirHoras 07F3  
                   __end_of_deveExibirMinutos 07AC                           ??_trocaDeLadoEdicao 0075  
                            __size_of___awdiv 005B                              __size_of___awmod 004D  
                                 _horasAlarme 0032                            __end_of__stringtab 0410  
                                    __ptext10 06CF                                      __ptext11 061D  
                                    __ptext20 0EA4                                      __ptext12 0F00  
                                    __ptext21 013C                                      __ptext13 03E9  
                                    __ptext30 07F3                                      __ptext22 0E51  
                                    __ptext14 0E71                                      __ptext31 0E38  
                                    __ptext23 0E43                                      __ptext15 0FA5  
                                    __ptext24 0FD1                                      __ptext16 003C  
                                    __ptext25 03AF                                      __ptext17 0678  
                                    __ptext26 0E8A                                      __ptext18 0EBE  
                                    __ptext27 05A8                                      __ptext19 0F79  
                                    __ptext28 0E5F                                      __ptext29 052C  
                   __end_of_trocaDeLadoEdicao 0E51                       _opcoesDeExibicaoHorario 071C  
                               __size_of_main 00BF                                      _segundos 003C  
                                  _LCD_Cursor 0E71                   __size_of_deveExibirSegundos 0029  
                    __size_of_LCD_WriteString 0025                        ??_exibeHorarioPiscando 0053  
                                  _INTCONbits 000B                                   ??_exibeTela 0075  
                     _executaAcaoSegundoBotao 003C                  ??_exibeHorarioPiscandoAlarme 0053  
                                    intlevel1 0000        executaAcaoPrimeiroBotao@tempoSegurando 0048  
                  __size_of_diminuirOpcaoMenu 001A                                     stringcode 040A  
                            ?_deveExibirHoras 0070                    __size_of_deveExibirMinutos 0047  
 __end_of_adicionaTempoSegurandoPrimeiroBotao 0E43  __size_of_adicionaTempoSegurandoPrimeiroBotao 000B  
       ??_adicionaTempoSegurandoPrimeiroBotao 0070          ?_adicionaTempoSegurandoPrimeiroBotao 0070  
         _adicionaTempoSegurandoPrimeiroBotao 0E38           __size_of_exibeHorarioPiscandoAlarme 0022  
                                    stringdir 040A                                      stringtab 0400  
                      __size_of_LCD_WriteData 0012                    __size_of_trocaDeLadoEdicao 000E  
                   ??_opcoesDeExibicaoHorario 0075    __end_of_aumentarValorDoLadoEscolhidoAlarme 1000  
 __size_of_aumentarValorDoLadoEscolhidoAlarme 002F          ??_aumentarValorDoLadoEscolhidoAlarme 0047  
         ?_aumentarValorDoLadoEscolhidoAlarme 0070            _aumentarValorDoLadoEscolhidoAlarme 0FD1  
                    _executaAcaoPrimeiroBotao 013C                             ?_mostraMenuOpcoes 0070  
                                 _textoNaTela 003E  
